
kernel.elf:     file format elf64-x86-64


Disassembly of section .text:

ffffffff80203000 <_Z7strncmpPKcS0_i>:
ffffffff80203000:	f3 0f 1e fa          	endbr64 
ffffffff80203004:	55                   	push   %rbp
ffffffff80203005:	48 89 e5             	mov    %rsp,%rbp
ffffffff80203008:	48 83 ec 18          	sub    $0x18,%rsp
ffffffff8020300c:	48 89 7d f8          	mov    %rdi,-0x8(%rbp)
ffffffff80203010:	48 89 75 f0          	mov    %rsi,-0x10(%rbp)
ffffffff80203014:	89 55 ec             	mov    %edx,-0x14(%rbp)
ffffffff80203017:	eb 1c                	jmp    ffffffff80203035 <_Z7strncmpPKcS0_i+0x35>
ffffffff80203019:	48 8b 45 f8          	mov    -0x8(%rbp),%rax
ffffffff8020301d:	0f b6 10             	movzbl (%rax),%edx
ffffffff80203020:	48 8b 45 f0          	mov    -0x10(%rbp),%rax
ffffffff80203024:	0f b6 00             	movzbl (%rax),%eax
ffffffff80203027:	38 c2                	cmp    %al,%dl
ffffffff80203029:	75 34                	jne    ffffffff8020305f <_Z7strncmpPKcS0_i+0x5f>
ffffffff8020302b:	48 83 45 f8 01       	addq   $0x1,-0x8(%rbp)
ffffffff80203030:	48 83 45 f0 01       	addq   $0x1,-0x10(%rbp)
ffffffff80203035:	48 8b 45 f8          	mov    -0x8(%rbp),%rax
ffffffff80203039:	0f b6 00             	movzbl (%rax),%eax
ffffffff8020303c:	84 c0                	test   %al,%al
ffffffff8020303e:	74 14                	je     ffffffff80203054 <_Z7strncmpPKcS0_i+0x54>
ffffffff80203040:	8b 45 ec             	mov    -0x14(%rbp),%eax
ffffffff80203043:	8d 50 ff             	lea    -0x1(%rax),%edx
ffffffff80203046:	89 55 ec             	mov    %edx,-0x14(%rbp)
ffffffff80203049:	85 c0                	test   %eax,%eax
ffffffff8020304b:	74 07                	je     ffffffff80203054 <_Z7strncmpPKcS0_i+0x54>
ffffffff8020304d:	b8 01 00 00 00       	mov    $0x1,%eax
ffffffff80203052:	eb 05                	jmp    ffffffff80203059 <_Z7strncmpPKcS0_i+0x59>
ffffffff80203054:	b8 00 00 00 00       	mov    $0x0,%eax
ffffffff80203059:	84 c0                	test   %al,%al
ffffffff8020305b:	75 bc                	jne    ffffffff80203019 <_Z7strncmpPKcS0_i+0x19>
ffffffff8020305d:	eb 01                	jmp    ffffffff80203060 <_Z7strncmpPKcS0_i+0x60>
ffffffff8020305f:	90                   	nop
ffffffff80203060:	48 8b 45 f8          	mov    -0x8(%rbp),%rax
ffffffff80203064:	0f b6 00             	movzbl (%rax),%eax
ffffffff80203067:	0f b6 d0             	movzbl %al,%edx
ffffffff8020306a:	48 8b 45 f0          	mov    -0x10(%rbp),%rax
ffffffff8020306e:	0f b6 00             	movzbl (%rax),%eax
ffffffff80203071:	0f b6 c8             	movzbl %al,%ecx
ffffffff80203074:	89 d0                	mov    %edx,%eax
ffffffff80203076:	29 c8                	sub    %ecx,%eax
ffffffff80203078:	c9                   	leave  
ffffffff80203079:	c3                   	ret    

ffffffff8020307a <_Z16ValidateChecksumP14RSDPDescriptor>:
ffffffff8020307a:	f3 0f 1e fa          	endbr64 
ffffffff8020307e:	55                   	push   %rbp
ffffffff8020307f:	48 89 e5             	mov    %rsp,%rbp
ffffffff80203082:	48 83 ec 28          	sub    $0x28,%rsp
ffffffff80203086:	48 89 7d d8          	mov    %rdi,-0x28(%rbp)
ffffffff8020308a:	c7 45 fc 00 00 00 00 	movl   $0x0,-0x4(%rbp)
ffffffff80203091:	48 8b 45 d8          	mov    -0x28(%rbp),%rax
ffffffff80203095:	48 89 45 e8          	mov    %rax,-0x18(%rbp)
ffffffff80203099:	48 c7 45 f0 00 00 00 	movq   $0x0,-0x10(%rbp)
ffffffff802030a0:	00 
ffffffff802030a1:	eb 19                	jmp    ffffffff802030bc <_Z16ValidateChecksumP14RSDPDescriptor+0x42>
ffffffff802030a3:	48 8b 55 e8          	mov    -0x18(%rbp),%rdx
ffffffff802030a7:	48 8b 45 f0          	mov    -0x10(%rbp),%rax
ffffffff802030ab:	48 01 d0             	add    %rdx,%rax
ffffffff802030ae:	0f b6 00             	movzbl (%rax),%eax
ffffffff802030b1:	0f b6 c0             	movzbl %al,%eax
ffffffff802030b4:	01 45 fc             	add    %eax,-0x4(%rbp)
ffffffff802030b7:	48 83 45 f0 01       	addq   $0x1,-0x10(%rbp)
ffffffff802030bc:	48 83 7d f0 13       	cmpq   $0x13,-0x10(%rbp)
ffffffff802030c1:	76 e0                	jbe    ffffffff802030a3 <_Z16ValidateChecksumP14RSDPDescriptor+0x29>
ffffffff802030c3:	8b 45 fc             	mov    -0x4(%rbp),%eax
ffffffff802030c6:	0f b6 c0             	movzbl %al,%eax
ffffffff802030c9:	85 c0                	test   %eax,%eax
ffffffff802030cb:	0f 94 c0             	sete   %al
ffffffff802030ce:	88 45 e7             	mov    %al,-0x19(%rbp)
ffffffff802030d1:	0f b6 45 e7          	movzbl -0x19(%rbp),%eax
ffffffff802030d5:	c9                   	leave  
ffffffff802030d6:	c3                   	ret    

ffffffff802030d7 <_Z9ParseAPICm>:
ffffffff802030d7:	f3 0f 1e fa          	endbr64 
ffffffff802030db:	55                   	push   %rbp
ffffffff802030dc:	48 89 e5             	mov    %rsp,%rbp
ffffffff802030df:	48 83 ec 60          	sub    $0x60,%rsp
ffffffff802030e3:	48 89 7d a8          	mov    %rdi,-0x58(%rbp)
ffffffff802030e7:	48 8b 45 a8          	mov    -0x58(%rbp),%rax
ffffffff802030eb:	48 89 45 f0          	mov    %rax,-0x10(%rbp)
ffffffff802030ef:	48 8b 45 f0          	mov    -0x10(%rbp),%rax
ffffffff802030f3:	48 89 45 e8          	mov    %rax,-0x18(%rbp)
ffffffff802030f7:	48 8b 45 f0          	mov    -0x10(%rbp),%rax
ffffffff802030fb:	8b 40 04             	mov    0x4(%rax),%eax
ffffffff802030fe:	89 c2                	mov    %eax,%edx
ffffffff80203100:	48 8b 45 f0          	mov    -0x10(%rbp),%rax
ffffffff80203104:	48 01 d0             	add    %rdx,%rax
ffffffff80203107:	48 89 45 e0          	mov    %rax,-0x20(%rbp)
ffffffff8020310b:	48 8b 45 e0          	mov    -0x20(%rbp),%rax
ffffffff8020310f:	48 2b 45 f0          	sub    -0x10(%rbp),%rax
ffffffff80203113:	48 89 45 d8          	mov    %rax,-0x28(%rbp)
ffffffff80203117:	48 c7 45 f8 2c 00 00 	movq   $0x2c,-0x8(%rbp)
ffffffff8020311e:	00 
ffffffff8020311f:	e9 12 02 00 00       	jmp    ffffffff80203336 <_Z9ParseAPICm+0x25f>
ffffffff80203124:	48 8b 4d e8          	mov    -0x18(%rbp),%rcx
ffffffff80203128:	48 8b 45 f8          	mov    -0x8(%rbp),%rax
ffffffff8020312c:	48 8d 50 01          	lea    0x1(%rax),%rdx
ffffffff80203130:	48 89 55 f8          	mov    %rdx,-0x8(%rbp)
ffffffff80203134:	48 01 c8             	add    %rcx,%rax
ffffffff80203137:	0f b6 00             	movzbl (%rax),%eax
ffffffff8020313a:	88 45 d7             	mov    %al,-0x29(%rbp)
ffffffff8020313d:	48 8b 4d e8          	mov    -0x18(%rbp),%rcx
ffffffff80203141:	48 8b 45 f8          	mov    -0x8(%rbp),%rax
ffffffff80203145:	48 8d 50 01          	lea    0x1(%rax),%rdx
ffffffff80203149:	48 89 55 f8          	mov    %rdx,-0x8(%rbp)
ffffffff8020314d:	48 01 c8             	add    %rcx,%rax
ffffffff80203150:	0f b6 00             	movzbl (%rax),%eax
ffffffff80203153:	88 45 d6             	mov    %al,-0x2a(%rbp)
ffffffff80203156:	0f b6 45 d7          	movzbl -0x29(%rbp),%eax
ffffffff8020315a:	83 f8 04             	cmp    $0x4,%eax
ffffffff8020315d:	0f 84 6e 01 00 00    	je     ffffffff802032d1 <_Z9ParseAPICm+0x1fa>
ffffffff80203163:	83 f8 04             	cmp    $0x4,%eax
ffffffff80203166:	0f 8f b0 01 00 00    	jg     ffffffff8020331c <_Z9ParseAPICm+0x245>
ffffffff8020316c:	83 f8 02             	cmp    $0x2,%eax
ffffffff8020316f:	0f 84 ce 00 00 00    	je     ffffffff80203243 <_Z9ParseAPICm+0x16c>
ffffffff80203175:	83 f8 02             	cmp    $0x2,%eax
ffffffff80203178:	0f 8f 9e 01 00 00    	jg     ffffffff8020331c <_Z9ParseAPICm+0x245>
ffffffff8020317e:	85 c0                	test   %eax,%eax
ffffffff80203180:	74 0a                	je     ffffffff8020318c <_Z9ParseAPICm+0xb5>
ffffffff80203182:	83 f8 01             	cmp    $0x1,%eax
ffffffff80203185:	74 65                	je     ffffffff802031ec <_Z9ParseAPICm+0x115>
ffffffff80203187:	e9 90 01 00 00       	jmp    ffffffff8020331c <_Z9ParseAPICm+0x245>
ffffffff8020318c:	48 8b 4d e8          	mov    -0x18(%rbp),%rcx
ffffffff80203190:	48 8b 45 f8          	mov    -0x8(%rbp),%rax
ffffffff80203194:	48 8d 50 01          	lea    0x1(%rax),%rdx
ffffffff80203198:	48 89 55 f8          	mov    %rdx,-0x8(%rbp)
ffffffff8020319c:	48 01 c8             	add    %rcx,%rax
ffffffff8020319f:	0f b6 10             	movzbl (%rax),%edx
ffffffff802031a2:	8b 05 58 4e 00 00    	mov    0x4e58(%rip),%eax        # ffffffff80208000 <cur_id>
ffffffff802031a8:	8d 48 01             	lea    0x1(%rax),%ecx
ffffffff802031ab:	89 0d 4f 4e 00 00    	mov    %ecx,0x4e4f(%rip)        # ffffffff80208000 <cur_id>
ffffffff802031b1:	48 98                	cltq   
ffffffff802031b3:	88 90 40 81 20 80    	mov    %dl,-0x7fdf7ec0(%rax)
ffffffff802031b9:	48 8b 4d e8          	mov    -0x18(%rbp),%rcx
ffffffff802031bd:	48 8b 45 f8          	mov    -0x8(%rbp),%rax
ffffffff802031c1:	48 8d 50 01          	lea    0x1(%rax),%rdx
ffffffff802031c5:	48 89 55 f8          	mov    %rdx,-0x8(%rbp)
ffffffff802031c9:	48 01 c8             	add    %rcx,%rax
ffffffff802031cc:	0f b6 00             	movzbl (%rax),%eax
ffffffff802031cf:	88 45 be             	mov    %al,-0x42(%rbp)
ffffffff802031d2:	48 8b 55 e8          	mov    -0x18(%rbp),%rdx
ffffffff802031d6:	48 8b 45 f8          	mov    -0x8(%rbp),%rax
ffffffff802031da:	48 01 d0             	add    %rdx,%rax
ffffffff802031dd:	8b 00                	mov    (%rax),%eax
ffffffff802031df:	89 45 b8             	mov    %eax,-0x48(%rbp)
ffffffff802031e2:	48 83 45 f8 04       	addq   $0x4,-0x8(%rbp)
ffffffff802031e7:	e9 4a 01 00 00       	jmp    ffffffff80203336 <_Z9ParseAPICm+0x25f>
ffffffff802031ec:	48 8b 4d e8          	mov    -0x18(%rbp),%rcx
ffffffff802031f0:	48 8b 45 f8          	mov    -0x8(%rbp),%rax
ffffffff802031f4:	48 8d 50 01          	lea    0x1(%rax),%rdx
ffffffff802031f8:	48 89 55 f8          	mov    %rdx,-0x8(%rbp)
ffffffff802031fc:	48 01 c8             	add    %rcx,%rax
ffffffff802031ff:	0f b6 00             	movzbl (%rax),%eax
ffffffff80203202:	88 45 c5             	mov    %al,-0x3b(%rbp)
ffffffff80203205:	48 83 45 f8 01       	addq   $0x1,-0x8(%rbp)
ffffffff8020320a:	48 8b 55 e8          	mov    -0x18(%rbp),%rdx
ffffffff8020320e:	48 8b 45 f8          	mov    -0x8(%rbp),%rax
ffffffff80203212:	48 01 d0             	add    %rdx,%rax
ffffffff80203215:	8b 00                	mov    (%rax),%eax
ffffffff80203217:	89 45 c0             	mov    %eax,-0x40(%rbp)
ffffffff8020321a:	48 83 45 f8 04       	addq   $0x4,-0x8(%rbp)
ffffffff8020321f:	48 8b 55 e8          	mov    -0x18(%rbp),%rdx
ffffffff80203223:	48 8b 45 f8          	mov    -0x8(%rbp),%rax
ffffffff80203227:	48 01 d0             	add    %rdx,%rax
ffffffff8020322a:	8b 00                	mov    (%rax),%eax
ffffffff8020322c:	88 45 bf             	mov    %al,-0x41(%rbp)
ffffffff8020322f:	48 83 45 f8 04       	addq   $0x4,-0x8(%rbp)
ffffffff80203234:	8b 45 c0             	mov    -0x40(%rbp),%eax
ffffffff80203237:	48 89 05 ca 4d 00 00 	mov    %rax,0x4dca(%rip)        # ffffffff80208008 <apic_base>
ffffffff8020323e:	e9 f3 00 00 00       	jmp    ffffffff80203336 <_Z9ParseAPICm+0x25f>
ffffffff80203243:	48 8b 4d e8          	mov    -0x18(%rbp),%rcx
ffffffff80203247:	48 8b 45 f8          	mov    -0x8(%rbp),%rax
ffffffff8020324b:	48 8d 50 01          	lea    0x1(%rax),%rdx
ffffffff8020324f:	48 89 55 f8          	mov    %rdx,-0x8(%rbp)
ffffffff80203253:	48 01 c8             	add    %rcx,%rax
ffffffff80203256:	0f b6 00             	movzbl (%rax),%eax
ffffffff80203259:	88 45 d0             	mov    %al,-0x30(%rbp)
ffffffff8020325c:	48 8b 4d e8          	mov    -0x18(%rbp),%rcx
ffffffff80203260:	48 8b 45 f8          	mov    -0x8(%rbp),%rax
ffffffff80203264:	48 8d 50 01          	lea    0x1(%rax),%rdx
ffffffff80203268:	48 89 55 f8          	mov    %rdx,-0x8(%rbp)
ffffffff8020326c:	48 01 c8             	add    %rcx,%rax
ffffffff8020326f:	0f b6 00             	movzbl (%rax),%eax
ffffffff80203272:	88 45 cf             	mov    %al,-0x31(%rbp)
ffffffff80203275:	48 8b 55 e8          	mov    -0x18(%rbp),%rdx
ffffffff80203279:	48 8b 45 f8          	mov    -0x8(%rbp),%rax
ffffffff8020327d:	48 01 d0             	add    %rdx,%rax
ffffffff80203280:	8b 00                	mov    (%rax),%eax
ffffffff80203282:	89 45 c8             	mov    %eax,-0x38(%rbp)
ffffffff80203285:	48 83 45 f8 04       	addq   $0x4,-0x8(%rbp)
ffffffff8020328a:	48 8b 55 e8          	mov    -0x18(%rbp),%rdx
ffffffff8020328e:	48 8b 45 f8          	mov    -0x8(%rbp),%rax
ffffffff80203292:	48 01 d0             	add    %rdx,%rax
ffffffff80203295:	0f b7 00             	movzwl (%rax),%eax
ffffffff80203298:	66 89 45 c6          	mov    %ax,-0x3a(%rbp)
ffffffff8020329c:	48 83 45 f8 02       	addq   $0x2,-0x8(%rbp)
ffffffff802032a1:	8b 05 79 4e 00 00    	mov    0x4e79(%rip),%eax        # ffffffff80208120 <cur_redirect>
ffffffff802032a7:	48 98                	cltq   
ffffffff802032a9:	0f b6 55 cf          	movzbl -0x31(%rbp),%edx
ffffffff802032ad:	88 14 c5 20 80 20 80 	mov    %dl,-0x7fdf7fe0(,%rax,8)
ffffffff802032b4:	8b 55 c8             	mov    -0x38(%rbp),%edx
ffffffff802032b7:	8b 05 63 4e 00 00    	mov    0x4e63(%rip),%eax        # ffffffff80208120 <cur_redirect>
ffffffff802032bd:	8d 48 01             	lea    0x1(%rax),%ecx
ffffffff802032c0:	89 0d 5a 4e 00 00    	mov    %ecx,0x4e5a(%rip)        # ffffffff80208120 <cur_redirect>
ffffffff802032c6:	48 98                	cltq   
ffffffff802032c8:	89 14 c5 24 80 20 80 	mov    %edx,-0x7fdf7fdc(,%rax,8)
ffffffff802032cf:	eb 65                	jmp    ffffffff80203336 <_Z9ParseAPICm+0x25f>
ffffffff802032d1:	48 8b 4d e8          	mov    -0x18(%rbp),%rcx
ffffffff802032d5:	48 8b 45 f8          	mov    -0x8(%rbp),%rax
ffffffff802032d9:	48 8d 50 01          	lea    0x1(%rax),%rdx
ffffffff802032dd:	48 89 55 f8          	mov    %rdx,-0x8(%rbp)
ffffffff802032e1:	48 01 c8             	add    %rcx,%rax
ffffffff802032e4:	0f b6 00             	movzbl (%rax),%eax
ffffffff802032e7:	88 45 d5             	mov    %al,-0x2b(%rbp)
ffffffff802032ea:	48 8b 55 e8          	mov    -0x18(%rbp),%rdx
ffffffff802032ee:	48 8b 45 f8          	mov    -0x8(%rbp),%rax
ffffffff802032f2:	48 01 d0             	add    %rdx,%rax
ffffffff802032f5:	0f b7 00             	movzwl (%rax),%eax
ffffffff802032f8:	66 89 45 d2          	mov    %ax,-0x2e(%rbp)
ffffffff802032fc:	48 83 45 f8 02       	addq   $0x2,-0x8(%rbp)
ffffffff80203301:	48 8b 4d e8          	mov    -0x18(%rbp),%rcx
ffffffff80203305:	48 8b 45 f8          	mov    -0x8(%rbp),%rax
ffffffff80203309:	48 8d 50 01          	lea    0x1(%rax),%rdx
ffffffff8020330d:	48 89 55 f8          	mov    %rdx,-0x8(%rbp)
ffffffff80203311:	48 01 c8             	add    %rcx,%rax
ffffffff80203314:	0f b6 00             	movzbl (%rax),%eax
ffffffff80203317:	88 45 d1             	mov    %al,-0x2f(%rbp)
ffffffff8020331a:	eb 1a                	jmp    ffffffff80203336 <_Z9ParseAPICm+0x25f>
ffffffff8020331c:	0f b6 45 d7          	movzbl -0x29(%rbp),%eax
ffffffff80203320:	89 c6                	mov    %eax,%esi
ffffffff80203322:	48 c7 c7 00 10 20 80 	mov    $0xffffffff80201000,%rdi
ffffffff80203329:	b8 00 00 00 00       	mov    $0x0,%eax
ffffffff8020332e:	e8 77 31 00 00       	call   ffffffff802064aa <_ZN3VGA12print_formatEPKcz>
ffffffff80203333:	f4                   	hlt    
ffffffff80203334:	eb fd                	jmp    ffffffff80203333 <_Z9ParseAPICm+0x25c>
ffffffff80203336:	48 8b 45 f8          	mov    -0x8(%rbp),%rax
ffffffff8020333a:	48 3b 45 d8          	cmp    -0x28(%rbp),%rax
ffffffff8020333e:	0f 82 e0 fd ff ff    	jb     ffffffff80203124 <_Z9ParseAPICm+0x4d>
ffffffff80203344:	90                   	nop
ffffffff80203345:	90                   	nop
ffffffff80203346:	c9                   	leave  
ffffffff80203347:	c3                   	ret    

ffffffff80203348 <_ZN4ACPI10FindTablesEP15stivale2_struct>:
ffffffff80203348:	f3 0f 1e fa          	endbr64 
ffffffff8020334c:	55                   	push   %rbp
ffffffff8020334d:	48 89 e5             	mov    %rsp,%rbp
ffffffff80203350:	48 83 ec 50          	sub    $0x50,%rsp
ffffffff80203354:	48 89 7d b8          	mov    %rdi,-0x48(%rbp)
ffffffff80203358:	48 8b 45 b8          	mov    -0x48(%rbp),%rax
ffffffff8020335c:	48 ba 78 5e 37 0a 93 	movabs $0x9e1786930a375e78,%rdx
ffffffff80203363:	86 17 9e 
ffffffff80203366:	48 89 d6             	mov    %rdx,%rsi
ffffffff80203369:	48 89 c7             	mov    %rax,%rdi
ffffffff8020336c:	e8 06 19 00 00       	call   ffffffff80204c77 <_Z7get_tagP15stivale2_structm>
ffffffff80203371:	48 89 45 f0          	mov    %rax,-0x10(%rbp)
ffffffff80203375:	48 83 7d f0 00       	cmpq   $0x0,-0x10(%rbp)
ffffffff8020337a:	75 11                	jne    ffffffff8020338d <_ZN4ACPI10FindTablesEP15stivale2_struct+0x45>
ffffffff8020337c:	48 c7 c7 1c 10 20 80 	mov    $0xffffffff8020101c,%rdi
ffffffff80203383:	b8 00 00 00 00       	mov    $0x0,%eax
ffffffff80203388:	e8 1d 31 00 00       	call   ffffffff802064aa <_ZN3VGA12print_formatEPKcz>
ffffffff8020338d:	48 8b 45 f0          	mov    -0x10(%rbp),%rax
ffffffff80203391:	48 89 c6             	mov    %rax,%rsi
ffffffff80203394:	48 c7 c7 2f 10 20 80 	mov    $0xffffffff8020102f,%rdi
ffffffff8020339b:	b8 00 00 00 00       	mov    $0x0,%eax
ffffffff802033a0:	e8 05 31 00 00       	call   ffffffff802064aa <_ZN3VGA12print_formatEPKcz>
ffffffff802033a5:	48 8b 45 f0          	mov    -0x10(%rbp),%rax
ffffffff802033a9:	48 8b 40 10          	mov    0x10(%rax),%rax
ffffffff802033ad:	48 89 45 e8          	mov    %rax,-0x18(%rbp)
ffffffff802033b1:	48 8b 45 e8          	mov    -0x18(%rbp),%rax
ffffffff802033b5:	48 89 c7             	mov    %rax,%rdi
ffffffff802033b8:	e8 bd fc ff ff       	call   ffffffff8020307a <_Z16ValidateChecksumP14RSDPDescriptor>
ffffffff802033bd:	83 f0 01             	xor    $0x1,%eax
ffffffff802033c0:	84 c0                	test   %al,%al
ffffffff802033c2:	74 11                	je     ffffffff802033d5 <_ZN4ACPI10FindTablesEP15stivale2_struct+0x8d>
ffffffff802033c4:	48 c7 c7 40 10 20 80 	mov    $0xffffffff80201040,%rdi
ffffffff802033cb:	b8 00 00 00 00       	mov    $0x0,%eax
ffffffff802033d0:	e8 d5 30 00 00       	call   ffffffff802064aa <_ZN3VGA12print_formatEPKcz>
ffffffff802033d5:	48 8b 45 e8          	mov    -0x18(%rbp),%rax
ffffffff802033d9:	8b 40 10             	mov    0x10(%rax),%eax
ffffffff802033dc:	89 c6                	mov    %eax,%esi
ffffffff802033de:	48 c7 c7 58 10 20 80 	mov    $0xffffffff80201058,%rdi
ffffffff802033e5:	b8 00 00 00 00       	mov    $0x0,%eax
ffffffff802033ea:	e8 bb 30 00 00       	call   ffffffff802064aa <_ZN3VGA12print_formatEPKcz>
ffffffff802033ef:	48 8b 45 e8          	mov    -0x18(%rbp),%rax
ffffffff802033f3:	8b 40 10             	mov    0x10(%rax),%eax
ffffffff802033f6:	89 c0                	mov    %eax,%eax
ffffffff802033f8:	48 89 45 e0          	mov    %rax,-0x20(%rbp)
ffffffff802033fc:	48 8b 45 e0          	mov    -0x20(%rbp),%rax
ffffffff80203400:	8b 40 04             	mov    0x4(%rax),%eax
ffffffff80203403:	89 c0                	mov    %eax,%eax
ffffffff80203405:	48 83 e8 08          	sub    $0x8,%rax
ffffffff80203409:	48 c1 e8 02          	shr    $0x2,%rax
ffffffff8020340d:	89 45 dc             	mov    %eax,-0x24(%rbp)
ffffffff80203410:	48 8b 45 e0          	mov    -0x20(%rbp),%rax
ffffffff80203414:	48 83 c0 08          	add    $0x8,%rax
ffffffff80203418:	48 89 45 d0          	mov    %rax,-0x30(%rbp)
ffffffff8020341c:	c7 45 fc 00 00 00 00 	movl   $0x0,-0x4(%rbp)
ffffffff80203423:	e9 a4 00 00 00       	jmp    ffffffff802034cc <_ZN4ACPI10FindTablesEP15stivale2_struct+0x184>
ffffffff80203428:	8b 45 fc             	mov    -0x4(%rbp),%eax
ffffffff8020342b:	48 98                	cltq   
ffffffff8020342d:	48 8d 14 85 00 00 00 	lea    0x0(,%rax,4),%rdx
ffffffff80203434:	00 
ffffffff80203435:	48 8b 45 d0          	mov    -0x30(%rbp),%rax
ffffffff80203439:	48 01 d0             	add    %rdx,%rax
ffffffff8020343c:	8b 00                	mov    (%rax),%eax
ffffffff8020343e:	89 c0                	mov    %eax,%eax
ffffffff80203440:	48 89 45 c8          	mov    %rax,-0x38(%rbp)
ffffffff80203444:	48 8b 45 c8          	mov    -0x38(%rbp),%rax
ffffffff80203448:	0f b6 00             	movzbl (%rax),%eax
ffffffff8020344b:	88 45 c3             	mov    %al,-0x3d(%rbp)
ffffffff8020344e:	48 8b 45 c8          	mov    -0x38(%rbp),%rax
ffffffff80203452:	0f b6 40 01          	movzbl 0x1(%rax),%eax
ffffffff80203456:	88 45 c4             	mov    %al,-0x3c(%rbp)
ffffffff80203459:	48 8b 45 c8          	mov    -0x38(%rbp),%rax
ffffffff8020345d:	0f b6 40 02          	movzbl 0x2(%rax),%eax
ffffffff80203461:	88 45 c5             	mov    %al,-0x3b(%rbp)
ffffffff80203464:	48 8b 45 c8          	mov    -0x38(%rbp),%rax
ffffffff80203468:	0f b6 40 03          	movzbl 0x3(%rax),%eax
ffffffff8020346c:	88 45 c6             	mov    %al,-0x3a(%rbp)
ffffffff8020346f:	c6 45 c7 00          	movb   $0x0,-0x39(%rbp)
ffffffff80203473:	0f b6 45 c3          	movzbl -0x3d(%rbp),%eax
ffffffff80203477:	3c 41                	cmp    $0x41,%al
ffffffff80203479:	75 4d                	jne    ffffffff802034c8 <_ZN4ACPI10FindTablesEP15stivale2_struct+0x180>
ffffffff8020347b:	0f b6 45 c4          	movzbl -0x3c(%rbp),%eax
ffffffff8020347f:	3c 50                	cmp    $0x50,%al
ffffffff80203481:	75 45                	jne    ffffffff802034c8 <_ZN4ACPI10FindTablesEP15stivale2_struct+0x180>
ffffffff80203483:	0f b6 45 c5          	movzbl -0x3b(%rbp),%eax
ffffffff80203487:	3c 49                	cmp    $0x49,%al
ffffffff80203489:	75 3d                	jne    ffffffff802034c8 <_ZN4ACPI10FindTablesEP15stivale2_struct+0x180>
ffffffff8020348b:	0f b6 45 c6          	movzbl -0x3a(%rbp),%eax
ffffffff8020348f:	3c 43                	cmp    $0x43,%al
ffffffff80203491:	75 35                	jne    ffffffff802034c8 <_ZN4ACPI10FindTablesEP15stivale2_struct+0x180>
ffffffff80203493:	8b 45 fc             	mov    -0x4(%rbp),%eax
ffffffff80203496:	48 98                	cltq   
ffffffff80203498:	48 8d 14 85 00 00 00 	lea    0x0(,%rax,4),%rdx
ffffffff8020349f:	00 
ffffffff802034a0:	48 8b 45 d0          	mov    -0x30(%rbp),%rax
ffffffff802034a4:	48 01 d0             	add    %rdx,%rax
ffffffff802034a7:	8b 00                	mov    (%rax),%eax
ffffffff802034a9:	89 c6                	mov    %eax,%esi
ffffffff802034ab:	48 c7 c7 66 10 20 80 	mov    $0xffffffff80201066,%rdi
ffffffff802034b2:	b8 00 00 00 00       	mov    $0x0,%eax
ffffffff802034b7:	e8 ee 2f 00 00       	call   ffffffff802064aa <_ZN3VGA12print_formatEPKcz>
ffffffff802034bc:	48 8b 45 c8          	mov    -0x38(%rbp),%rax
ffffffff802034c0:	48 89 c7             	mov    %rax,%rdi
ffffffff802034c3:	e8 0f fc ff ff       	call   ffffffff802030d7 <_Z9ParseAPICm>
ffffffff802034c8:	83 45 fc 01          	addl   $0x1,-0x4(%rbp)
ffffffff802034cc:	8b 45 fc             	mov    -0x4(%rbp),%eax
ffffffff802034cf:	3b 45 dc             	cmp    -0x24(%rbp),%eax
ffffffff802034d2:	0f 8c 50 ff ff ff    	jl     ffffffff80203428 <_ZN4ACPI10FindTablesEP15stivale2_struct+0xe0>
ffffffff802034d8:	90                   	nop
ffffffff802034d9:	90                   	nop
ffffffff802034da:	c9                   	leave  
ffffffff802034db:	c3                   	ret    

ffffffff802034dc <_ZN4ACPI9SetupAPICEv>:
ffffffff802034dc:	f3 0f 1e fa          	endbr64 
ffffffff802034e0:	55                   	push   %rbp
ffffffff802034e1:	48 89 e5             	mov    %rsp,%rbp
ffffffff802034e4:	53                   	push   %rbx
ffffffff802034e5:	48 83 ec 18          	sub    $0x18,%rsp
ffffffff802034e9:	bf 08 00 00 00       	mov    $0x8,%edi
ffffffff802034ee:	e8 86 0a 00 00       	call   ffffffff80203f79 <_Znwm>
ffffffff802034f3:	48 89 c3             	mov    %rax,%rbx
ffffffff802034f6:	48 8b 05 0b 4b 00 00 	mov    0x4b0b(%rip),%rax        # ffffffff80208008 <apic_base>
ffffffff802034fd:	48 89 c6             	mov    %rax,%rsi
ffffffff80203500:	48 89 df             	mov    %rbx,%rdi
ffffffff80203503:	e8 14 0d 00 00       	call   ffffffff8020421c <_ZN6IOAPICC1Em>
ffffffff80203508:	48 89 1d 39 26 01 00 	mov    %rbx,0x12639(%rip)        # ffffffff80215b48 <ioapic>
ffffffff8020350f:	8b 05 0b 4c 00 00    	mov    0x4c0b(%rip),%eax        # ffffffff80208120 <cur_redirect>
ffffffff80203515:	89 c6                	mov    %eax,%esi
ffffffff80203517:	48 c7 c7 80 10 20 80 	mov    $0xffffffff80201080,%rdi
ffffffff8020351e:	b8 00 00 00 00       	mov    $0x0,%eax
ffffffff80203523:	e8 82 2f 00 00       	call   ffffffff802064aa <_ZN3VGA12print_formatEPKcz>
ffffffff80203528:	c7 45 ec 00 00 00 00 	movl   $0x0,-0x14(%rbp)
ffffffff8020352f:	eb 3c                	jmp    ffffffff8020356d <_ZN4ACPI9SetupAPICEv+0x91>
ffffffff80203531:	48 8b 05 10 26 01 00 	mov    0x12610(%rip),%rax        # ffffffff80215b48 <ioapic>
ffffffff80203538:	8b 55 ec             	mov    -0x14(%rbp),%edx
ffffffff8020353b:	48 63 d2             	movslq %edx,%rdx
ffffffff8020353e:	0f b6 14 d5 20 80 20 	movzbl -0x7fdf7fe0(,%rdx,8),%edx
ffffffff80203545:	80 
ffffffff80203546:	83 c2 20             	add    $0x20,%edx
ffffffff80203549:	0f b6 d2             	movzbl %dl,%edx
ffffffff8020354c:	8b 4d ec             	mov    -0x14(%rbp),%ecx
ffffffff8020354f:	48 63 c9             	movslq %ecx,%rcx
ffffffff80203552:	8b 0c cd 24 80 20 80 	mov    -0x7fdf7fdc(,%rcx,8),%ecx
ffffffff80203559:	0f b6 f1             	movzbl %cl,%esi
ffffffff8020355c:	b9 00 00 00 00       	mov    $0x0,%ecx
ffffffff80203561:	48 89 c7             	mov    %rax,%rdi
ffffffff80203564:	e8 3b 0d 00 00       	call   ffffffff802042a4 <_ZN6IOAPIC8RedirectEhhj>
ffffffff80203569:	83 45 ec 01          	addl   $0x1,-0x14(%rbp)
ffffffff8020356d:	8b 05 ad 4b 00 00    	mov    0x4bad(%rip),%eax        # ffffffff80208120 <cur_redirect>
ffffffff80203573:	39 45 ec             	cmp    %eax,-0x14(%rbp)
ffffffff80203576:	7c b9                	jl     ffffffff80203531 <_ZN4ACPI9SetupAPICEv+0x55>
ffffffff80203578:	90                   	nop
ffffffff80203579:	90                   	nop
ffffffff8020357a:	48 8b 5d f8          	mov    -0x8(%rbp),%rbx
ffffffff8020357e:	c9                   	leave  
ffffffff8020357f:	c3                   	ret    

ffffffff80203580 <_Z8ReadBasev>:
ffffffff80203580:	f3 0f 1e fa          	endbr64 
ffffffff80203584:	55                   	push   %rbp
ffffffff80203585:	48 89 e5             	mov    %rsp,%rbp
ffffffff80203588:	48 83 ec 10          	sub    $0x10,%rsp
ffffffff8020358c:	b8 1b 00 00 00       	mov    $0x1b,%eax
ffffffff80203591:	89 c1                	mov    %eax,%ecx
ffffffff80203593:	0f 32                	rdmsr  
ffffffff80203595:	48 89 45 f8          	mov    %rax,-0x8(%rbp)
ffffffff80203599:	48 89 55 f0          	mov    %rdx,-0x10(%rbp)
ffffffff8020359d:	48 8b 45 f0          	mov    -0x10(%rbp),%rax
ffffffff802035a1:	48 c1 e0 20          	shl    $0x20,%rax
ffffffff802035a5:	48 0b 45 f8          	or     -0x8(%rbp),%rax
ffffffff802035a9:	c9                   	leave  
ffffffff802035aa:	c3                   	ret    

ffffffff802035ab <_Z9WriteBasem>:
ffffffff802035ab:	f3 0f 1e fa          	endbr64 
ffffffff802035af:	55                   	push   %rbp
ffffffff802035b0:	48 89 e5             	mov    %rsp,%rbp
ffffffff802035b3:	48 83 ec 18          	sub    $0x18,%rsp
ffffffff802035b7:	48 89 7d e8          	mov    %rdi,-0x18(%rbp)
ffffffff802035bb:	48 8b 45 e8          	mov    -0x18(%rbp),%rax
ffffffff802035bf:	89 c0                	mov    %eax,%eax
ffffffff802035c1:	48 89 45 f8          	mov    %rax,-0x8(%rbp)
ffffffff802035c5:	48 8b 45 e8          	mov    -0x18(%rbp),%rax
ffffffff802035c9:	48 c1 e8 20          	shr    $0x20,%rax
ffffffff802035cd:	48 89 45 f0          	mov    %rax,-0x10(%rbp)
ffffffff802035d1:	48 8b 45 f8          	mov    -0x8(%rbp),%rax
ffffffff802035d5:	48 8b 55 f0          	mov    -0x10(%rbp),%rdx
ffffffff802035d9:	b9 1b 00 00 00       	mov    $0x1b,%ecx
ffffffff802035de:	0f 30                	wrmsr  
ffffffff802035e0:	90                   	nop
ffffffff802035e1:	c9                   	leave  
ffffffff802035e2:	c3                   	ret    
ffffffff802035e3:	90                   	nop

ffffffff802035e4 <_ZN5LAPIC8WriteRegEjj>:
ffffffff802035e4:	f3 0f 1e fa          	endbr64 
ffffffff802035e8:	55                   	push   %rbp
ffffffff802035e9:	48 89 e5             	mov    %rsp,%rbp
ffffffff802035ec:	48 83 ec 10          	sub    $0x10,%rsp
ffffffff802035f0:	48 89 7d f8          	mov    %rdi,-0x8(%rbp)
ffffffff802035f4:	89 75 f4             	mov    %esi,-0xc(%rbp)
ffffffff802035f7:	89 55 f0             	mov    %edx,-0x10(%rbp)
ffffffff802035fa:	48 8b 45 f8          	mov    -0x8(%rbp),%rax
ffffffff802035fe:	48 8b 10             	mov    (%rax),%rdx
ffffffff80203601:	8b 45 f4             	mov    -0xc(%rbp),%eax
ffffffff80203604:	48 01 c2             	add    %rax,%rdx
ffffffff80203607:	8b 45 f0             	mov    -0x10(%rbp),%eax
ffffffff8020360a:	89 02                	mov    %eax,(%rdx)
ffffffff8020360c:	90                   	nop
ffffffff8020360d:	c9                   	leave  
ffffffff8020360e:	c3                   	ret    
ffffffff8020360f:	90                   	nop

ffffffff80203610 <_ZN5LAPIC7ReadRegEj>:
ffffffff80203610:	f3 0f 1e fa          	endbr64 
ffffffff80203614:	55                   	push   %rbp
ffffffff80203615:	48 89 e5             	mov    %rsp,%rbp
ffffffff80203618:	48 83 ec 10          	sub    $0x10,%rsp
ffffffff8020361c:	48 89 7d f8          	mov    %rdi,-0x8(%rbp)
ffffffff80203620:	89 75 f4             	mov    %esi,-0xc(%rbp)
ffffffff80203623:	48 8b 45 f8          	mov    -0x8(%rbp),%rax
ffffffff80203627:	48 8b 10             	mov    (%rax),%rdx
ffffffff8020362a:	8b 45 f4             	mov    -0xc(%rbp),%eax
ffffffff8020362d:	48 01 d0             	add    %rdx,%rax
ffffffff80203630:	8b 00                	mov    (%rax),%eax
ffffffff80203632:	c9                   	leave  
ffffffff80203633:	c3                   	ret    

ffffffff80203634 <_Z24SpuriousInterruptHandlerPN3IDT11registers_tE>:
ffffffff80203634:	f3 0f 1e fa          	endbr64 
ffffffff80203638:	55                   	push   %rbp
ffffffff80203639:	48 89 e5             	mov    %rsp,%rbp
ffffffff8020363c:	48 83 ec 10          	sub    $0x10,%rsp
ffffffff80203640:	48 89 7d f8          	mov    %rdi,-0x8(%rbp)
ffffffff80203644:	48 c7 c7 a3 10 20 80 	mov    $0xffffffff802010a3,%rdi
ffffffff8020364b:	b8 00 00 00 00       	mov    $0x0,%eax
ffffffff80203650:	e8 55 2e 00 00       	call   ffffffff802064aa <_ZN3VGA12print_formatEPKcz>
ffffffff80203655:	48 8b 45 f8          	mov    -0x8(%rbp),%rax
ffffffff80203659:	c9                   	leave  
ffffffff8020365a:	c3                   	ret    
ffffffff8020365b:	90                   	nop

ffffffff8020365c <_ZN5LAPICC1Ev>:
ffffffff8020365c:	f3 0f 1e fa          	endbr64 
ffffffff80203660:	55                   	push   %rbp
ffffffff80203661:	48 89 e5             	mov    %rsp,%rbp
ffffffff80203664:	48 83 ec 20          	sub    $0x20,%rsp
ffffffff80203668:	48 89 7d e8          	mov    %rdi,-0x18(%rbp)
ffffffff8020366c:	e8 0f ff ff ff       	call   ffffffff80203580 <_Z8ReadBasev>
ffffffff80203671:	48 ba 00 f0 ff ff ff 	movabs $0xffffffffff000,%rdx
ffffffff80203678:	ff 0f 00 
ffffffff8020367b:	48 21 d0             	and    %rdx,%rax
ffffffff8020367e:	48 89 45 f8          	mov    %rax,-0x8(%rbp)
ffffffff80203682:	48 8b 55 f8          	mov    -0x8(%rbp),%rdx
ffffffff80203686:	48 8b 45 e8          	mov    -0x18(%rbp),%rax
ffffffff8020368a:	48 89 10             	mov    %rdx,(%rax)
ffffffff8020368d:	48 8b 55 f8          	mov    -0x8(%rbp),%rdx
ffffffff80203691:	48 8b 45 f8          	mov    -0x8(%rbp),%rax
ffffffff80203695:	b9 13 00 00 00       	mov    $0x13,%ecx
ffffffff8020369a:	48 89 c6             	mov    %rax,%rsi
ffffffff8020369d:	bf 00 00 00 00       	mov    $0x0,%edi
ffffffff802036a2:	e8 0a 2f 00 00       	call   ffffffff802065b1 <_ZN13VirtualMemory7MapPageEPNS_13PageMapLevel4Emmi>
ffffffff802036a7:	48 c7 c6 34 36 20 80 	mov    $0xffffffff80203634,%rsi
ffffffff802036ae:	bf ff 00 00 00       	mov    $0xff,%edi
ffffffff802036b3:	e8 86 0a 00 00       	call   ffffffff8020413e <_ZN3IDT13RegisterEntryEiPFPNS_11registers_tES1_E>
ffffffff802036b8:	e8 c3 fe ff ff       	call   ffffffff80203580 <_Z8ReadBasev>
ffffffff802036bd:	80 cc 08             	or     $0x8,%ah
ffffffff802036c0:	48 89 c7             	mov    %rax,%rdi
ffffffff802036c3:	e8 e3 fe ff ff       	call   ffffffff802035ab <_Z9WriteBasem>
ffffffff802036c8:	48 8b 45 e8          	mov    -0x18(%rbp),%rax
ffffffff802036cc:	be f0 00 00 00       	mov    $0xf0,%esi
ffffffff802036d1:	48 89 c7             	mov    %rax,%rdi
ffffffff802036d4:	e8 37 ff ff ff       	call   ffffffff80203610 <_ZN5LAPIC7ReadRegEj>
ffffffff802036d9:	0d ff 01 00 00       	or     $0x1ff,%eax
ffffffff802036de:	89 c2                	mov    %eax,%edx
ffffffff802036e0:	48 8b 45 e8          	mov    -0x18(%rbp),%rax
ffffffff802036e4:	be f0 00 00 00       	mov    $0xf0,%esi
ffffffff802036e9:	48 89 c7             	mov    %rax,%rdi
ffffffff802036ec:	e8 f3 fe ff ff       	call   ffffffff802035e4 <_ZN5LAPIC8WriteRegEjj>
ffffffff802036f1:	90                   	nop
ffffffff802036f2:	c9                   	leave  
ffffffff802036f3:	c3                   	ret    

ffffffff802036f4 <_ZN5LAPIC3EOIEv>:
ffffffff802036f4:	f3 0f 1e fa          	endbr64 
ffffffff802036f8:	55                   	push   %rbp
ffffffff802036f9:	48 89 e5             	mov    %rsp,%rbp
ffffffff802036fc:	48 83 ec 08          	sub    $0x8,%rsp
ffffffff80203700:	48 89 7d f8          	mov    %rdi,-0x8(%rbp)
ffffffff80203704:	48 8b 45 f8          	mov    -0x8(%rbp),%rax
ffffffff80203708:	ba 00 00 00 00       	mov    $0x0,%edx
ffffffff8020370d:	be b0 00 00 00       	mov    $0xb0,%esi
ffffffff80203712:	48 89 c7             	mov    %rax,%rdi
ffffffff80203715:	e8 ca fe ff ff       	call   ffffffff802035e4 <_ZN5LAPIC8WriteRegEjj>
ffffffff8020371a:	90                   	nop
ffffffff8020371b:	c9                   	leave  
ffffffff8020371c:	c3                   	ret    
ffffffff8020371d:	90                   	nop

ffffffff8020371e <_ZN6BitmapixEm>:
ffffffff8020371e:	f3 0f 1e fa          	endbr64 
ffffffff80203722:	55                   	push   %rbp
ffffffff80203723:	48 89 e5             	mov    %rsp,%rbp
ffffffff80203726:	48 83 ec 10          	sub    $0x10,%rsp
ffffffff8020372a:	48 89 7d f8          	mov    %rdi,-0x8(%rbp)
ffffffff8020372e:	48 89 75 f0          	mov    %rsi,-0x10(%rbp)
ffffffff80203732:	48 8b 55 f0          	mov    -0x10(%rbp),%rdx
ffffffff80203736:	48 8b 45 f8          	mov    -0x8(%rbp),%rax
ffffffff8020373a:	48 89 d6             	mov    %rdx,%rsi
ffffffff8020373d:	48 89 c7             	mov    %rax,%rdi
ffffffff80203740:	e8 a5 00 00 00       	call   ffffffff802037ea <_ZN6Bitmap3GetEm>
ffffffff80203745:	c9                   	leave  
ffffffff80203746:	c3                   	ret    
ffffffff80203747:	90                   	nop

ffffffff80203748 <_ZN6Bitmap3SetEmb>:
ffffffff80203748:	f3 0f 1e fa          	endbr64 
ffffffff8020374c:	55                   	push   %rbp
ffffffff8020374d:	48 89 e5             	mov    %rsp,%rbp
ffffffff80203750:	48 83 ec 28          	sub    $0x28,%rsp
ffffffff80203754:	48 89 7d e8          	mov    %rdi,-0x18(%rbp)
ffffffff80203758:	48 89 75 e0          	mov    %rsi,-0x20(%rbp)
ffffffff8020375c:	89 d0                	mov    %edx,%eax
ffffffff8020375e:	88 45 dc             	mov    %al,-0x24(%rbp)
ffffffff80203761:	48 8b 45 e0          	mov    -0x20(%rbp),%rax
ffffffff80203765:	48 c1 e8 03          	shr    $0x3,%rax
ffffffff80203769:	48 89 45 f8          	mov    %rax,-0x8(%rbp)
ffffffff8020376d:	48 8b 45 e0          	mov    -0x20(%rbp),%rax
ffffffff80203771:	83 e0 07             	and    $0x7,%eax
ffffffff80203774:	88 45 f7             	mov    %al,-0x9(%rbp)
ffffffff80203777:	0f b6 45 f7          	movzbl -0x9(%rbp),%eax
ffffffff8020377b:	ba 80 00 00 00       	mov    $0x80,%edx
ffffffff80203780:	89 c1                	mov    %eax,%ecx
ffffffff80203782:	d3 fa                	sar    %cl,%edx
ffffffff80203784:	89 d0                	mov    %edx,%eax
ffffffff80203786:	88 45 f6             	mov    %al,-0xa(%rbp)
ffffffff80203789:	48 8b 45 e8          	mov    -0x18(%rbp),%rax
ffffffff8020378d:	48 8b 10             	mov    (%rax),%rdx
ffffffff80203790:	48 8b 45 f8          	mov    -0x8(%rbp),%rax
ffffffff80203794:	48 01 d0             	add    %rdx,%rax
ffffffff80203797:	0f b6 00             	movzbl (%rax),%eax
ffffffff8020379a:	89 c2                	mov    %eax,%edx
ffffffff8020379c:	0f b6 45 f6          	movzbl -0xa(%rbp),%eax
ffffffff802037a0:	f7 d0                	not    %eax
ffffffff802037a2:	89 d1                	mov    %edx,%ecx
ffffffff802037a4:	21 c1                	and    %eax,%ecx
ffffffff802037a6:	48 8b 45 e8          	mov    -0x18(%rbp),%rax
ffffffff802037aa:	48 8b 10             	mov    (%rax),%rdx
ffffffff802037ad:	48 8b 45 f8          	mov    -0x8(%rbp),%rax
ffffffff802037b1:	48 01 d0             	add    %rdx,%rax
ffffffff802037b4:	89 ca                	mov    %ecx,%edx
ffffffff802037b6:	88 10                	mov    %dl,(%rax)
ffffffff802037b8:	80 7d dc 00          	cmpb   $0x0,-0x24(%rbp)
ffffffff802037bc:	74 24                	je     ffffffff802037e2 <_ZN6Bitmap3SetEmb+0x9a>
ffffffff802037be:	48 8b 45 e8          	mov    -0x18(%rbp),%rax
ffffffff802037c2:	48 8b 10             	mov    (%rax),%rdx
ffffffff802037c5:	48 8b 45 f8          	mov    -0x8(%rbp),%rax
ffffffff802037c9:	48 01 d0             	add    %rdx,%rax
ffffffff802037cc:	0f b6 00             	movzbl (%rax),%eax
ffffffff802037cf:	48 8b 55 e8          	mov    -0x18(%rbp),%rdx
ffffffff802037d3:	48 8b 0a             	mov    (%rdx),%rcx
ffffffff802037d6:	48 8b 55 f8          	mov    -0x8(%rbp),%rdx
ffffffff802037da:	48 01 ca             	add    %rcx,%rdx
ffffffff802037dd:	0a 45 f6             	or     -0xa(%rbp),%al
ffffffff802037e0:	88 02                	mov    %al,(%rdx)
ffffffff802037e2:	b8 01 00 00 00       	mov    $0x1,%eax
ffffffff802037e7:	c9                   	leave  
ffffffff802037e8:	c3                   	ret    
ffffffff802037e9:	90                   	nop

ffffffff802037ea <_ZN6Bitmap3GetEm>:
ffffffff802037ea:	f3 0f 1e fa          	endbr64 
ffffffff802037ee:	55                   	push   %rbp
ffffffff802037ef:	48 89 e5             	mov    %rsp,%rbp
ffffffff802037f2:	48 83 ec 20          	sub    $0x20,%rsp
ffffffff802037f6:	48 89 7d e8          	mov    %rdi,-0x18(%rbp)
ffffffff802037fa:	48 89 75 e0          	mov    %rsi,-0x20(%rbp)
ffffffff802037fe:	48 8b 45 e0          	mov    -0x20(%rbp),%rax
ffffffff80203802:	48 c1 e8 03          	shr    $0x3,%rax
ffffffff80203806:	48 89 45 f8          	mov    %rax,-0x8(%rbp)
ffffffff8020380a:	48 8b 45 e0          	mov    -0x20(%rbp),%rax
ffffffff8020380e:	83 e0 07             	and    $0x7,%eax
ffffffff80203811:	88 45 f7             	mov    %al,-0x9(%rbp)
ffffffff80203814:	0f b6 45 f7          	movzbl -0x9(%rbp),%eax
ffffffff80203818:	ba 80 00 00 00       	mov    $0x80,%edx
ffffffff8020381d:	89 c1                	mov    %eax,%ecx
ffffffff8020381f:	d3 fa                	sar    %cl,%edx
ffffffff80203821:	89 d0                	mov    %edx,%eax
ffffffff80203823:	88 45 f6             	mov    %al,-0xa(%rbp)
ffffffff80203826:	48 8b 45 e8          	mov    -0x18(%rbp),%rax
ffffffff8020382a:	48 8b 10             	mov    (%rax),%rdx
ffffffff8020382d:	48 8b 45 f8          	mov    -0x8(%rbp),%rax
ffffffff80203831:	48 01 d0             	add    %rdx,%rax
ffffffff80203834:	0f b6 00             	movzbl (%rax),%eax
ffffffff80203837:	22 45 f6             	and    -0xa(%rbp),%al
ffffffff8020383a:	84 c0                	test   %al,%al
ffffffff8020383c:	74 07                	je     ffffffff80203845 <_ZN6Bitmap3GetEm+0x5b>
ffffffff8020383e:	b8 01 00 00 00       	mov    $0x1,%eax
ffffffff80203843:	eb 05                	jmp    ffffffff8020384a <_ZN6Bitmap3GetEm+0x60>
ffffffff80203845:	b8 00 00 00 00       	mov    $0x0,%eax
ffffffff8020384a:	c9                   	leave  
ffffffff8020384b:	c3                   	ret    

ffffffff8020384c <_Z6memsetPvim>:
ffffffff8020384c:	f3 0f 1e fa          	endbr64 
ffffffff80203850:	55                   	push   %rbp
ffffffff80203851:	48 89 e5             	mov    %rsp,%rbp
ffffffff80203854:	48 83 ec 28          	sub    $0x28,%rsp
ffffffff80203858:	48 89 7d e8          	mov    %rdi,-0x18(%rbp)
ffffffff8020385c:	89 75 e4             	mov    %esi,-0x1c(%rbp)
ffffffff8020385f:	48 89 55 d8          	mov    %rdx,-0x28(%rbp)
ffffffff80203863:	48 8b 45 e8          	mov    -0x18(%rbp),%rax
ffffffff80203867:	48 89 45 f0          	mov    %rax,-0x10(%rbp)
ffffffff8020386b:	c7 45 fc 00 00 00 00 	movl   $0x0,-0x4(%rbp)
ffffffff80203872:	eb 16                	jmp    ffffffff8020388a <_Z6memsetPvim+0x3e>
ffffffff80203874:	8b 45 fc             	mov    -0x4(%rbp),%eax
ffffffff80203877:	48 63 d0             	movslq %eax,%rdx
ffffffff8020387a:	48 8b 45 f0          	mov    -0x10(%rbp),%rax
ffffffff8020387e:	48 01 d0             	add    %rdx,%rax
ffffffff80203881:	8b 55 e4             	mov    -0x1c(%rbp),%edx
ffffffff80203884:	88 10                	mov    %dl,(%rax)
ffffffff80203886:	83 45 fc 01          	addl   $0x1,-0x4(%rbp)
ffffffff8020388a:	8b 45 fc             	mov    -0x4(%rbp),%eax
ffffffff8020388d:	48 98                	cltq   
ffffffff8020388f:	48 39 45 d8          	cmp    %rax,-0x28(%rbp)
ffffffff80203893:	77 df                	ja     ffffffff80203874 <_Z6memsetPvim+0x28>
ffffffff80203895:	90                   	nop
ffffffff80203896:	90                   	nop
ffffffff80203897:	c9                   	leave  
ffffffff80203898:	c3                   	ret    

ffffffff80203899 <_Z21setup_gdt_descriptorsP20gdt_descriptor_arrayILi7EEmm>:
ffffffff80203899:	f3 0f 1e fa          	endbr64 
ffffffff8020389d:	55                   	push   %rbp
ffffffff8020389e:	48 89 e5             	mov    %rsp,%rbp
ffffffff802038a1:	53                   	push   %rbx
ffffffff802038a2:	48 83 ec 58          	sub    $0x58,%rsp
ffffffff802038a6:	48 89 7d b8          	mov    %rdi,-0x48(%rbp)
ffffffff802038aa:	48 89 75 b0          	mov    %rsi,-0x50(%rbp)
ffffffff802038ae:	48 89 55 a8          	mov    %rdx,-0x58(%rbp)
ffffffff802038b2:	48 8b 45 b8          	mov    -0x48(%rbp),%rax
ffffffff802038b6:	48 89 c7             	mov    %rax,%rdi
ffffffff802038b9:	e8 fa 02 00 00       	call   ffffffff80203bb8 <_ZN20gdt_descriptor_arrayILi7EE4zeroEv>
ffffffff802038be:	48 8b 5d b8          	mov    -0x48(%rbp),%rbx
ffffffff802038c2:	48 8d 45 c0          	lea    -0x40(%rbp),%rax
ffffffff802038c6:	ba 20 00 00 00       	mov    $0x20,%edx
ffffffff802038cb:	be 1a 00 00 00       	mov    $0x1a,%esi
ffffffff802038d0:	48 89 c7             	mov    %rax,%rdi
ffffffff802038d3:	e8 96 01 00 00       	call   ffffffff80203a6e <_ZN14gdt_descriptorC1Ehh>
ffffffff802038d8:	48 8b 45 c0          	mov    -0x40(%rbp),%rax
ffffffff802038dc:	48 89 c2             	mov    %rax,%rdx
ffffffff802038df:	be 08 00 00 00       	mov    $0x8,%esi
ffffffff802038e4:	48 89 df             	mov    %rbx,%rdi
ffffffff802038e7:	e8 f6 02 00 00       	call   ffffffff80203be2 <_ZN20gdt_descriptor_arrayILi7EE3setE12gdt_selector14gdt_descriptor>
ffffffff802038ec:	48 8b 5d b8          	mov    -0x48(%rbp),%rbx
ffffffff802038f0:	48 8d 45 c8          	lea    -0x38(%rbp),%rax
ffffffff802038f4:	ba 00 00 00 00       	mov    $0x0,%edx
ffffffff802038f9:	be 12 00 00 00       	mov    $0x12,%esi
ffffffff802038fe:	48 89 c7             	mov    %rax,%rdi
ffffffff80203901:	e8 68 01 00 00       	call   ffffffff80203a6e <_ZN14gdt_descriptorC1Ehh>
ffffffff80203906:	48 8b 45 c8          	mov    -0x38(%rbp),%rax
ffffffff8020390a:	48 89 c2             	mov    %rax,%rdx
ffffffff8020390d:	be 10 00 00 00       	mov    $0x10,%esi
ffffffff80203912:	48 89 df             	mov    %rbx,%rdi
ffffffff80203915:	e8 c8 02 00 00       	call   ffffffff80203be2 <_ZN20gdt_descriptor_arrayILi7EE3setE12gdt_selector14gdt_descriptor>
ffffffff8020391a:	48 8b 5d b8          	mov    -0x48(%rbp),%rbx
ffffffff8020391e:	48 8d 45 d0          	lea    -0x30(%rbp),%rax
ffffffff80203922:	ba 20 00 00 00       	mov    $0x20,%edx
ffffffff80203927:	be 7a 00 00 00       	mov    $0x7a,%esi
ffffffff8020392c:	48 89 c7             	mov    %rax,%rdi
ffffffff8020392f:	e8 3a 01 00 00       	call   ffffffff80203a6e <_ZN14gdt_descriptorC1Ehh>
ffffffff80203934:	48 8b 45 d0          	mov    -0x30(%rbp),%rax
ffffffff80203938:	48 89 c2             	mov    %rax,%rdx
ffffffff8020393b:	be 23 00 00 00       	mov    $0x23,%esi
ffffffff80203940:	48 89 df             	mov    %rbx,%rdi
ffffffff80203943:	e8 9a 02 00 00       	call   ffffffff80203be2 <_ZN20gdt_descriptor_arrayILi7EE3setE12gdt_selector14gdt_descriptor>
ffffffff80203948:	48 8b 5d b8          	mov    -0x48(%rbp),%rbx
ffffffff8020394c:	48 8d 45 d8          	lea    -0x28(%rbp),%rax
ffffffff80203950:	ba 00 00 00 00       	mov    $0x0,%edx
ffffffff80203955:	be 7a 00 00 00       	mov    $0x7a,%esi
ffffffff8020395a:	48 89 c7             	mov    %rax,%rdi
ffffffff8020395d:	e8 0c 01 00 00       	call   ffffffff80203a6e <_ZN14gdt_descriptorC1Ehh>
ffffffff80203962:	48 8b 45 d8          	mov    -0x28(%rbp),%rax
ffffffff80203966:	48 89 c2             	mov    %rax,%rdx
ffffffff80203969:	be 23 00 00 00       	mov    $0x23,%esi
ffffffff8020396e:	48 89 df             	mov    %rbx,%rdi
ffffffff80203971:	e8 6c 02 00 00       	call   ffffffff80203be2 <_ZN20gdt_descriptor_arrayILi7EE3setE12gdt_selector14gdt_descriptor>
ffffffff80203976:	48 8b 5d b8          	mov    -0x48(%rbp),%rbx
ffffffff8020397a:	48 8b 4d a8          	mov    -0x58(%rbp),%rcx
ffffffff8020397e:	48 8b 55 b0          	mov    -0x50(%rbp),%rdx
ffffffff80203982:	48 8d 45 e0          	lea    -0x20(%rbp),%rax
ffffffff80203986:	be 09 00 00 00       	mov    $0x9,%esi
ffffffff8020398b:	48 89 c7             	mov    %rax,%rdi
ffffffff8020398e:	e8 39 01 00 00       	call   ffffffff80203acc <_ZN15gdt_xdescriptorC1Ehmm>
ffffffff80203993:	48 8b 45 e0          	mov    -0x20(%rbp),%rax
ffffffff80203997:	48 8b 55 e8          	mov    -0x18(%rbp),%rdx
ffffffff8020399b:	48 89 d1             	mov    %rdx,%rcx
ffffffff8020399e:	48 89 c2             	mov    %rax,%rdx
ffffffff802039a1:	be 28 00 00 00       	mov    $0x28,%esi
ffffffff802039a6:	48 89 df             	mov    %rbx,%rdi
ffffffff802039a9:	e8 6a 02 00 00       	call   ffffffff80203c18 <_ZN20gdt_descriptor_arrayILi7EE4xsetE12gdt_selector15gdt_xdescriptor>
ffffffff802039ae:	48 c7 c6 f0 42 21 80 	mov    $0xffffffff802142f0,%rsi
ffffffff802039b5:	48 c7 c7 40 82 20 80 	mov    $0xffffffff80208240,%rdi
ffffffff802039bc:	e8 b5 02 00 00       	call   ffffffff80203c76 <_ZN20gdt_descriptor_arrayILi7EE17fill_gdt_registerEP4gdtr>
ffffffff802039c1:	90                   	nop
ffffffff802039c2:	48 8b 5d f8          	mov    -0x8(%rbp),%rbx
ffffffff802039c6:	c9                   	leave  
ffffffff802039c7:	c3                   	ret    

ffffffff802039c8 <_ZN3GDT4InitEv>:
ffffffff802039c8:	f3 0f 1e fa          	endbr64 
ffffffff802039cc:	55                   	push   %rbp
ffffffff802039cd:	48 89 e5             	mov    %rsp,%rbp
ffffffff802039d0:	48 83 ec 10          	sub    $0x10,%rsp
ffffffff802039d4:	48 c7 45 f8 80 42 21 	movq   $0xffffffff80214280,-0x8(%rbp)
ffffffff802039db:	80 
ffffffff802039dc:	48 8b 45 f8          	mov    -0x8(%rbp),%rax
ffffffff802039e0:	48 83 c0 70          	add    $0x70,%rax
ffffffff802039e4:	48 89 45 f0          	mov    %rax,-0x10(%rbp)
ffffffff802039e8:	48 8b 55 f0          	mov    -0x10(%rbp),%rdx
ffffffff802039ec:	48 8b 45 f8          	mov    -0x8(%rbp),%rax
ffffffff802039f0:	48 89 c6             	mov    %rax,%rsi
ffffffff802039f3:	48 c7 c7 40 82 20 80 	mov    $0xffffffff80208240,%rdi
ffffffff802039fa:	e8 9a fe ff ff       	call   ffffffff80203899 <_Z21setup_gdt_descriptorsP20gdt_descriptor_arrayILi7EEmm>
ffffffff802039ff:	48 c7 c0 f0 42 21 80 	mov    $0xffffffff802142f0,%rax
ffffffff80203a06:	48 89 c7             	mov    %rax,%rdi
ffffffff80203a09:	e8 32 03 00 00       	call   ffffffff80203d40 <loadGdt>
ffffffff80203a0e:	90                   	nop
ffffffff80203a0f:	c9                   	leave  
ffffffff80203a10:	c3                   	ret    

ffffffff80203a11 <_Z41__static_initialization_and_destruction_0ii>:
ffffffff80203a11:	f3 0f 1e fa          	endbr64 
ffffffff80203a15:	55                   	push   %rbp
ffffffff80203a16:	48 89 e5             	mov    %rsp,%rbp
ffffffff80203a19:	48 83 ec 10          	sub    $0x10,%rsp
ffffffff80203a1d:	89 7d fc             	mov    %edi,-0x4(%rbp)
ffffffff80203a20:	89 75 f8             	mov    %esi,-0x8(%rbp)
ffffffff80203a23:	83 7d fc 01          	cmpl   $0x1,-0x4(%rbp)
ffffffff80203a27:	75 15                	jne    ffffffff80203a3e <_Z41__static_initialization_and_destruction_0ii+0x2d>
ffffffff80203a29:	81 7d f8 ff ff 00 00 	cmpl   $0xffff,-0x8(%rbp)
ffffffff80203a30:	75 0c                	jne    ffffffff80203a3e <_Z41__static_initialization_and_destruction_0ii+0x2d>
ffffffff80203a32:	48 c7 c7 40 82 20 80 	mov    $0xffffffff80208240,%rdi
ffffffff80203a39:	e8 38 01 00 00       	call   ffffffff80203b76 <_ZN20gdt_descriptor_arrayILi7EEC1Ev>
ffffffff80203a3e:	90                   	nop
ffffffff80203a3f:	c9                   	leave  
ffffffff80203a40:	c3                   	ret    

ffffffff80203a41 <_GLOBAL__sub_I__Z6memsetPvim>:
ffffffff80203a41:	f3 0f 1e fa          	endbr64 
ffffffff80203a45:	55                   	push   %rbp
ffffffff80203a46:	48 89 e5             	mov    %rsp,%rbp
ffffffff80203a49:	be ff ff 00 00       	mov    $0xffff,%esi
ffffffff80203a4e:	bf 01 00 00 00       	mov    $0x1,%edi
ffffffff80203a53:	e8 b9 ff ff ff       	call   ffffffff80203a11 <_Z41__static_initialization_and_destruction_0ii>
ffffffff80203a58:	5d                   	pop    %rbp
ffffffff80203a59:	c3                   	ret    

ffffffff80203a5a <_ZN14gdt_descriptorC1Ev>:
ffffffff80203a5a:	f3 0f 1e fa          	endbr64 
ffffffff80203a5e:	55                   	push   %rbp
ffffffff80203a5f:	48 89 e5             	mov    %rsp,%rbp
ffffffff80203a62:	48 83 ec 08          	sub    $0x8,%rsp
ffffffff80203a66:	48 89 7d f8          	mov    %rdi,-0x8(%rbp)
ffffffff80203a6a:	90                   	nop
ffffffff80203a6b:	c9                   	leave  
ffffffff80203a6c:	c3                   	ret    
ffffffff80203a6d:	90                   	nop

ffffffff80203a6e <_ZN14gdt_descriptorC1Ehh>:
ffffffff80203a6e:	f3 0f 1e fa          	endbr64 
ffffffff80203a72:	55                   	push   %rbp
ffffffff80203a73:	48 89 e5             	mov    %rsp,%rbp
ffffffff80203a76:	48 83 ec 10          	sub    $0x10,%rsp
ffffffff80203a7a:	48 89 7d f8          	mov    %rdi,-0x8(%rbp)
ffffffff80203a7e:	89 f1                	mov    %esi,%ecx
ffffffff80203a80:	89 d0                	mov    %edx,%eax
ffffffff80203a82:	89 ca                	mov    %ecx,%edx
ffffffff80203a84:	88 55 f4             	mov    %dl,-0xc(%rbp)
ffffffff80203a87:	88 45 f0             	mov    %al,-0x10(%rbp)
ffffffff80203a8a:	48 8b 45 f8          	mov    -0x8(%rbp),%rax
ffffffff80203a8e:	c6 40 07 00          	movb   $0x0,0x7(%rax)
ffffffff80203a92:	48 8b 45 f8          	mov    -0x8(%rbp),%rax
ffffffff80203a96:	c6 40 04 00          	movb   $0x0,0x4(%rax)
ffffffff80203a9a:	48 8b 45 f8          	mov    -0x8(%rbp),%rax
ffffffff80203a9e:	66 c7 40 02 00 00    	movw   $0x0,0x2(%rax)
ffffffff80203aa4:	0f b6 45 f4          	movzbl -0xc(%rbp),%eax
ffffffff80203aa8:	83 c8 80             	or     $0xffffff80,%eax
ffffffff80203aab:	89 c2                	mov    %eax,%edx
ffffffff80203aad:	48 8b 45 f8          	mov    -0x8(%rbp),%rax
ffffffff80203ab1:	88 50 05             	mov    %dl,0x5(%rax)
ffffffff80203ab4:	48 8b 45 f8          	mov    -0x8(%rbp),%rax
ffffffff80203ab8:	0f b6 55 f0          	movzbl -0x10(%rbp),%edx
ffffffff80203abc:	88 50 06             	mov    %dl,0x6(%rax)
ffffffff80203abf:	48 8b 45 f8          	mov    -0x8(%rbp),%rax
ffffffff80203ac3:	66 c7 00 00 00       	movw   $0x0,(%rax)
ffffffff80203ac8:	90                   	nop
ffffffff80203ac9:	c9                   	leave  
ffffffff80203aca:	c3                   	ret    
ffffffff80203acb:	90                   	nop

ffffffff80203acc <_ZN15gdt_xdescriptorC1Ehmm>:
ffffffff80203acc:	f3 0f 1e fa          	endbr64 
ffffffff80203ad0:	55                   	push   %rbp
ffffffff80203ad1:	48 89 e5             	mov    %rsp,%rbp
ffffffff80203ad4:	48 83 ec 20          	sub    $0x20,%rsp
ffffffff80203ad8:	48 89 7d f8          	mov    %rdi,-0x8(%rbp)
ffffffff80203adc:	89 f0                	mov    %esi,%eax
ffffffff80203ade:	48 89 55 e8          	mov    %rdx,-0x18(%rbp)
ffffffff80203ae2:	48 89 4d e0          	mov    %rcx,-0x20(%rbp)
ffffffff80203ae6:	88 45 f4             	mov    %al,-0xc(%rbp)
ffffffff80203ae9:	48 8b 45 f8          	mov    -0x8(%rbp),%rax
ffffffff80203aed:	48 89 c7             	mov    %rax,%rdi
ffffffff80203af0:	e8 65 ff ff ff       	call   ffffffff80203a5a <_ZN14gdt_descriptorC1Ev>
ffffffff80203af5:	0f b6 45 f4          	movzbl -0xc(%rbp),%eax
ffffffff80203af9:	83 c8 80             	or     $0xffffff80,%eax
ffffffff80203afc:	89 c2                	mov    %eax,%edx
ffffffff80203afe:	48 8b 45 f8          	mov    -0x8(%rbp),%rax
ffffffff80203b02:	88 50 05             	mov    %dl,0x5(%rax)
ffffffff80203b05:	48 8b 45 e0          	mov    -0x20(%rbp),%rax
ffffffff80203b09:	48 c1 e8 10          	shr    $0x10,%rax
ffffffff80203b0d:	83 e0 0f             	and    $0xf,%eax
ffffffff80203b10:	89 c2                	mov    %eax,%edx
ffffffff80203b12:	48 8b 45 f8          	mov    -0x8(%rbp),%rax
ffffffff80203b16:	88 50 06             	mov    %dl,0x6(%rax)
ffffffff80203b19:	48 8b 45 e0          	mov    -0x20(%rbp),%rax
ffffffff80203b1d:	89 c2                	mov    %eax,%edx
ffffffff80203b1f:	48 8b 45 f8          	mov    -0x8(%rbp),%rax
ffffffff80203b23:	66 89 10             	mov    %dx,(%rax)
ffffffff80203b26:	48 8b 45 e8          	mov    -0x18(%rbp),%rax
ffffffff80203b2a:	89 c2                	mov    %eax,%edx
ffffffff80203b2c:	48 8b 45 f8          	mov    -0x8(%rbp),%rax
ffffffff80203b30:	66 89 50 02          	mov    %dx,0x2(%rax)
ffffffff80203b34:	48 8b 45 e8          	mov    -0x18(%rbp),%rax
ffffffff80203b38:	48 c1 e8 10          	shr    $0x10,%rax
ffffffff80203b3c:	89 c2                	mov    %eax,%edx
ffffffff80203b3e:	48 8b 45 f8          	mov    -0x8(%rbp),%rax
ffffffff80203b42:	88 50 04             	mov    %dl,0x4(%rax)
ffffffff80203b45:	48 8b 45 e8          	mov    -0x18(%rbp),%rax
ffffffff80203b49:	48 c1 e8 18          	shr    $0x18,%rax
ffffffff80203b4d:	89 c2                	mov    %eax,%edx
ffffffff80203b4f:	48 8b 45 f8          	mov    -0x8(%rbp),%rax
ffffffff80203b53:	88 50 07             	mov    %dl,0x7(%rax)
ffffffff80203b56:	48 8b 45 e8          	mov    -0x18(%rbp),%rax
ffffffff80203b5a:	48 c1 e8 20          	shr    $0x20,%rax
ffffffff80203b5e:	89 c2                	mov    %eax,%edx
ffffffff80203b60:	48 8b 45 f8          	mov    -0x8(%rbp),%rax
ffffffff80203b64:	89 50 08             	mov    %edx,0x8(%rax)
ffffffff80203b67:	48 8b 45 f8          	mov    -0x8(%rbp),%rax
ffffffff80203b6b:	c7 40 0c 00 00 00 00 	movl   $0x0,0xc(%rax)
ffffffff80203b72:	90                   	nop
ffffffff80203b73:	c9                   	leave  
ffffffff80203b74:	c3                   	ret    
ffffffff80203b75:	90                   	nop

ffffffff80203b76 <_ZN20gdt_descriptor_arrayILi7EEC1Ev>:
ffffffff80203b76:	f3 0f 1e fa          	endbr64 
ffffffff80203b7a:	55                   	push   %rbp
ffffffff80203b7b:	48 89 e5             	mov    %rsp,%rbp
ffffffff80203b7e:	41 54                	push   %r12
ffffffff80203b80:	53                   	push   %rbx
ffffffff80203b81:	48 83 ec 10          	sub    $0x10,%rsp
ffffffff80203b85:	48 89 7d e8          	mov    %rdi,-0x18(%rbp)
ffffffff80203b89:	48 8b 45 e8          	mov    -0x18(%rbp),%rax
ffffffff80203b8d:	bb 06 00 00 00       	mov    $0x6,%ebx
ffffffff80203b92:	49 89 c4             	mov    %rax,%r12
ffffffff80203b95:	eb 10                	jmp    ffffffff80203ba7 <_ZN20gdt_descriptor_arrayILi7EEC1Ev+0x31>
ffffffff80203b97:	4c 89 e7             	mov    %r12,%rdi
ffffffff80203b9a:	e8 bb fe ff ff       	call   ffffffff80203a5a <_ZN14gdt_descriptorC1Ev>
ffffffff80203b9f:	49 83 c4 08          	add    $0x8,%r12
ffffffff80203ba3:	48 83 eb 01          	sub    $0x1,%rbx
ffffffff80203ba7:	48 85 db             	test   %rbx,%rbx
ffffffff80203baa:	79 eb                	jns    ffffffff80203b97 <_ZN20gdt_descriptor_arrayILi7EEC1Ev+0x21>
ffffffff80203bac:	90                   	nop
ffffffff80203bad:	90                   	nop
ffffffff80203bae:	48 83 c4 10          	add    $0x10,%rsp
ffffffff80203bb2:	5b                   	pop    %rbx
ffffffff80203bb3:	41 5c                	pop    %r12
ffffffff80203bb5:	5d                   	pop    %rbp
ffffffff80203bb6:	c3                   	ret    
ffffffff80203bb7:	90                   	nop

ffffffff80203bb8 <_ZN20gdt_descriptor_arrayILi7EE4zeroEv>:
ffffffff80203bb8:	f3 0f 1e fa          	endbr64 
ffffffff80203bbc:	55                   	push   %rbp
ffffffff80203bbd:	48 89 e5             	mov    %rsp,%rbp
ffffffff80203bc0:	48 83 ec 08          	sub    $0x8,%rsp
ffffffff80203bc4:	48 89 7d f8          	mov    %rdi,-0x8(%rbp)
ffffffff80203bc8:	48 8b 45 f8          	mov    -0x8(%rbp),%rax
ffffffff80203bcc:	ba 38 00 00 00       	mov    $0x38,%edx
ffffffff80203bd1:	be 00 00 00 00       	mov    $0x0,%esi
ffffffff80203bd6:	48 89 c7             	mov    %rax,%rdi
ffffffff80203bd9:	e8 6e fc ff ff       	call   ffffffff8020384c <_Z6memsetPvim>
ffffffff80203bde:	90                   	nop
ffffffff80203bdf:	c9                   	leave  
ffffffff80203be0:	c3                   	ret    
ffffffff80203be1:	90                   	nop

ffffffff80203be2 <_ZN20gdt_descriptor_arrayILi7EE3setE12gdt_selector14gdt_descriptor>:
ffffffff80203be2:	f3 0f 1e fa          	endbr64 
ffffffff80203be6:	55                   	push   %rbp
ffffffff80203be7:	48 89 e5             	mov    %rsp,%rbp
ffffffff80203bea:	48 83 ec 20          	sub    $0x20,%rsp
ffffffff80203bee:	48 89 7d f8          	mov    %rdi,-0x8(%rbp)
ffffffff80203bf2:	89 f0                	mov    %esi,%eax
ffffffff80203bf4:	48 89 55 ec          	mov    %rdx,-0x14(%rbp)
ffffffff80203bf8:	66 89 45 f4          	mov    %ax,-0xc(%rbp)
ffffffff80203bfc:	0f b7 55 f4          	movzwl -0xc(%rbp),%edx
ffffffff80203c00:	48 8b 45 f8          	mov    -0x8(%rbp),%rax
ffffffff80203c04:	89 d6                	mov    %edx,%esi
ffffffff80203c06:	48 89 c7             	mov    %rax,%rdi
ffffffff80203c09:	e8 ac 00 00 00       	call   ffffffff80203cba <_ZN20gdt_descriptor_arrayILi7EE9get_entryE12gdt_selector>
ffffffff80203c0e:	48 8b 55 ec          	mov    -0x14(%rbp),%rdx
ffffffff80203c12:	48 89 10             	mov    %rdx,(%rax)
ffffffff80203c15:	90                   	nop
ffffffff80203c16:	c9                   	leave  
ffffffff80203c17:	c3                   	ret    

ffffffff80203c18 <_ZN20gdt_descriptor_arrayILi7EE4xsetE12gdt_selector15gdt_xdescriptor>:
ffffffff80203c18:	f3 0f 1e fa          	endbr64 
ffffffff80203c1c:	55                   	push   %rbp
ffffffff80203c1d:	48 89 e5             	mov    %rsp,%rbp
ffffffff80203c20:	48 83 ec 20          	sub    $0x20,%rsp
ffffffff80203c24:	48 89 7d f8          	mov    %rdi,-0x8(%rbp)
ffffffff80203c28:	89 f0                	mov    %esi,%eax
ffffffff80203c2a:	48 89 55 e0          	mov    %rdx,-0x20(%rbp)
ffffffff80203c2e:	48 89 4d e8          	mov    %rcx,-0x18(%rbp)
ffffffff80203c32:	66 89 45 f4          	mov    %ax,-0xc(%rbp)
ffffffff80203c36:	0f b7 55 f4          	movzwl -0xc(%rbp),%edx
ffffffff80203c3a:	48 8b 45 f8          	mov    -0x8(%rbp),%rax
ffffffff80203c3e:	89 d6                	mov    %edx,%esi
ffffffff80203c40:	48 89 c7             	mov    %rax,%rdi
ffffffff80203c43:	e8 a6 00 00 00       	call   ffffffff80203cee <_ZN20gdt_descriptor_arrayILi7EE11get_entry_xE12gdt_selector>
ffffffff80203c48:	48 89 c1             	mov    %rax,%rcx
ffffffff80203c4b:	48 8b 45 e0          	mov    -0x20(%rbp),%rax
ffffffff80203c4f:	48 8b 55 e8          	mov    -0x18(%rbp),%rdx
ffffffff80203c53:	48 89 01             	mov    %rax,(%rcx)
ffffffff80203c56:	48 89 51 08          	mov    %rdx,0x8(%rcx)
ffffffff80203c5a:	90                   	nop
ffffffff80203c5b:	c9                   	leave  
ffffffff80203c5c:	c3                   	ret    
ffffffff80203c5d:	90                   	nop

ffffffff80203c5e <_ZNK20gdt_descriptor_arrayILi7EE4sizeEv>:
ffffffff80203c5e:	f3 0f 1e fa          	endbr64 
ffffffff80203c62:	55                   	push   %rbp
ffffffff80203c63:	48 89 e5             	mov    %rsp,%rbp
ffffffff80203c66:	48 83 ec 08          	sub    $0x8,%rsp
ffffffff80203c6a:	48 89 7d f8          	mov    %rdi,-0x8(%rbp)
ffffffff80203c6e:	b8 38 00 00 00       	mov    $0x38,%eax
ffffffff80203c73:	c9                   	leave  
ffffffff80203c74:	c3                   	ret    
ffffffff80203c75:	90                   	nop

ffffffff80203c76 <_ZN20gdt_descriptor_arrayILi7EE17fill_gdt_registerEP4gdtr>:
ffffffff80203c76:	f3 0f 1e fa          	endbr64 
ffffffff80203c7a:	55                   	push   %rbp
ffffffff80203c7b:	48 89 e5             	mov    %rsp,%rbp
ffffffff80203c7e:	48 83 ec 10          	sub    $0x10,%rsp
ffffffff80203c82:	48 89 7d f8          	mov    %rdi,-0x8(%rbp)
ffffffff80203c86:	48 89 75 f0          	mov    %rsi,-0x10(%rbp)
ffffffff80203c8a:	48 8b 45 f8          	mov    -0x8(%rbp),%rax
ffffffff80203c8e:	48 89 c7             	mov    %rax,%rdi
ffffffff80203c91:	e8 c8 ff ff ff       	call   ffffffff80203c5e <_ZNK20gdt_descriptor_arrayILi7EE4sizeEv>
ffffffff80203c96:	8d 50 ff             	lea    -0x1(%rax),%edx
ffffffff80203c99:	48 8b 45 f0          	mov    -0x10(%rbp),%rax
ffffffff80203c9d:	66 89 10             	mov    %dx,(%rax)
ffffffff80203ca0:	48 8b 45 f8          	mov    -0x8(%rbp),%rax
ffffffff80203ca4:	48 89 c7             	mov    %rax,%rdi
ffffffff80203ca7:	e8 76 00 00 00       	call   ffffffff80203d22 <_ZN20gdt_descriptor_arrayILi7EE3rawEv>
ffffffff80203cac:	48 89 c2             	mov    %rax,%rdx
ffffffff80203caf:	48 8b 45 f0          	mov    -0x10(%rbp),%rax
ffffffff80203cb3:	48 89 50 02          	mov    %rdx,0x2(%rax)
ffffffff80203cb7:	90                   	nop
ffffffff80203cb8:	c9                   	leave  
ffffffff80203cb9:	c3                   	ret    

ffffffff80203cba <_ZN20gdt_descriptor_arrayILi7EE9get_entryE12gdt_selector>:
ffffffff80203cba:	f3 0f 1e fa          	endbr64 
ffffffff80203cbe:	55                   	push   %rbp
ffffffff80203cbf:	48 89 e5             	mov    %rsp,%rbp
ffffffff80203cc2:	48 83 ec 10          	sub    $0x10,%rsp
ffffffff80203cc6:	48 89 7d f8          	mov    %rdi,-0x8(%rbp)
ffffffff80203cca:	89 f0                	mov    %esi,%eax
ffffffff80203ccc:	66 89 45 f4          	mov    %ax,-0xc(%rbp)
ffffffff80203cd0:	0f b7 45 f4          	movzwl -0xc(%rbp),%eax
ffffffff80203cd4:	66 c1 e8 03          	shr    $0x3,%ax
ffffffff80203cd8:	0f b7 c0             	movzwl %ax,%eax
ffffffff80203cdb:	48 98                	cltq   
ffffffff80203cdd:	48 8d 14 c5 00 00 00 	lea    0x0(,%rax,8),%rdx
ffffffff80203ce4:	00 
ffffffff80203ce5:	48 8b 45 f8          	mov    -0x8(%rbp),%rax
ffffffff80203ce9:	48 01 d0             	add    %rdx,%rax
ffffffff80203cec:	c9                   	leave  
ffffffff80203ced:	c3                   	ret    

ffffffff80203cee <_ZN20gdt_descriptor_arrayILi7EE11get_entry_xE12gdt_selector>:
ffffffff80203cee:	f3 0f 1e fa          	endbr64 
ffffffff80203cf2:	55                   	push   %rbp
ffffffff80203cf3:	48 89 e5             	mov    %rsp,%rbp
ffffffff80203cf6:	48 83 ec 10          	sub    $0x10,%rsp
ffffffff80203cfa:	48 89 7d f8          	mov    %rdi,-0x8(%rbp)
ffffffff80203cfe:	89 f0                	mov    %esi,%eax
ffffffff80203d00:	66 89 45 f4          	mov    %ax,-0xc(%rbp)
ffffffff80203d04:	0f b7 45 f4          	movzwl -0xc(%rbp),%eax
ffffffff80203d08:	66 c1 e8 03          	shr    $0x3,%ax
ffffffff80203d0c:	0f b7 c0             	movzwl %ax,%eax
ffffffff80203d0f:	48 98                	cltq   
ffffffff80203d11:	48 8d 14 c5 00 00 00 	lea    0x0(,%rax,8),%rdx
ffffffff80203d18:	00 
ffffffff80203d19:	48 8b 45 f8          	mov    -0x8(%rbp),%rax
ffffffff80203d1d:	48 01 d0             	add    %rdx,%rax
ffffffff80203d20:	c9                   	leave  
ffffffff80203d21:	c3                   	ret    

ffffffff80203d22 <_ZN20gdt_descriptor_arrayILi7EE3rawEv>:
ffffffff80203d22:	f3 0f 1e fa          	endbr64 
ffffffff80203d26:	55                   	push   %rbp
ffffffff80203d27:	48 89 e5             	mov    %rsp,%rbp
ffffffff80203d2a:	48 83 ec 08          	sub    $0x8,%rsp
ffffffff80203d2e:	48 89 7d f8          	mov    %rdi,-0x8(%rbp)
ffffffff80203d32:	48 8b 45 f8          	mov    -0x8(%rbp),%rax
ffffffff80203d36:	c9                   	leave  
ffffffff80203d37:	c3                   	ret    
ffffffff80203d38:	0f 1f 84 00 00 00 00 	nopl   0x0(%rax,%rax,1)
ffffffff80203d3f:	00 

ffffffff80203d40 <loadGdt>:
ffffffff80203d40:	0f 01 17             	lgdt   (%rdi)
ffffffff80203d43:	66 b8 10 00          	mov    $0x10,%ax
ffffffff80203d47:	8e d8                	mov    %eax,%ds
ffffffff80203d49:	8e d0                	mov    %eax,%ss
ffffffff80203d4b:	8e e0                	mov    %eax,%fs
ffffffff80203d4d:	8e e8                	mov    %eax,%gs
ffffffff80203d4f:	8e c0                	mov    %eax,%es
ffffffff80203d51:	5f                   	pop    %rdi
ffffffff80203d52:	6a 08                	push   $0x8
ffffffff80203d54:	57                   	push   %rdi
ffffffff80203d55:	48 cb                	lretq  

ffffffff80203d57 <_Z15ContinousMemoryP11MemoryBlock>:
ffffffff80203d57:	f3 0f 1e fa          	endbr64 
ffffffff80203d5b:	55                   	push   %rbp
ffffffff80203d5c:	48 89 e5             	mov    %rsp,%rbp
ffffffff80203d5f:	48 83 ec 18          	sub    $0x18,%rsp
ffffffff80203d63:	48 89 7d e8          	mov    %rdi,-0x18(%rbp)
ffffffff80203d67:	48 8b 45 e8          	mov    -0x18(%rbp),%rax
ffffffff80203d6b:	48 89 45 f8          	mov    %rax,-0x8(%rbp)
ffffffff80203d6f:	48 c7 45 f0 00 00 00 	movq   $0x0,-0x10(%rbp)
ffffffff80203d76:	00 
ffffffff80203d77:	eb 29                	jmp    ffffffff80203da2 <_Z15ContinousMemoryP11MemoryBlock+0x4b>
ffffffff80203d79:	48 8b 45 f8          	mov    -0x8(%rbp),%rax
ffffffff80203d7d:	48 8b 10             	mov    (%rax),%rdx
ffffffff80203d80:	48 8b 45 f0          	mov    -0x10(%rbp),%rax
ffffffff80203d84:	48 01 d0             	add    %rdx,%rax
ffffffff80203d87:	48 83 c0 10          	add    $0x10,%rax
ffffffff80203d8b:	48 89 45 f0          	mov    %rax,-0x10(%rbp)
ffffffff80203d8f:	48 8b 45 f8          	mov    -0x8(%rbp),%rax
ffffffff80203d93:	48 8b 00             	mov    (%rax),%rax
ffffffff80203d96:	48 83 c0 10          	add    $0x10,%rax
ffffffff80203d9a:	48 c1 e0 04          	shl    $0x4,%rax
ffffffff80203d9e:	48 01 45 f8          	add    %rax,-0x8(%rbp)
ffffffff80203da2:	48 8b 45 f8          	mov    -0x8(%rbp),%rax
ffffffff80203da6:	0f b6 40 08          	movzbl 0x8(%rax),%eax
ffffffff80203daa:	84 c0                	test   %al,%al
ffffffff80203dac:	74 0d                	je     ffffffff80203dbb <_Z15ContinousMemoryP11MemoryBlock+0x64>
ffffffff80203dae:	48 8b 05 53 05 01 00 	mov    0x10553(%rip),%rax        # ffffffff80214308 <g_size>
ffffffff80203db5:	48 39 45 f0          	cmp    %rax,-0x10(%rbp)
ffffffff80203db9:	72 be                	jb     ffffffff80203d79 <_Z15ContinousMemoryP11MemoryBlock+0x22>
ffffffff80203dbb:	48 83 7d f0 00       	cmpq   $0x0,-0x10(%rbp)
ffffffff80203dc0:	74 10                	je     ffffffff80203dd2 <_Z15ContinousMemoryP11MemoryBlock+0x7b>
ffffffff80203dc2:	48 83 6d f0 10       	subq   $0x10,-0x10(%rbp)
ffffffff80203dc7:	48 8b 45 e8          	mov    -0x18(%rbp),%rax
ffffffff80203dcb:	48 8b 55 f0          	mov    -0x10(%rbp),%rdx
ffffffff80203dcf:	48 89 10             	mov    %rdx,(%rax)
ffffffff80203dd2:	48 8b 45 f0          	mov    -0x10(%rbp),%rax
ffffffff80203dd6:	c9                   	leave  
ffffffff80203dd7:	c3                   	ret    

ffffffff80203dd8 <_Z12GetNextBlockP11MemoryBlock>:
ffffffff80203dd8:	f3 0f 1e fa          	endbr64 
ffffffff80203ddc:	55                   	push   %rbp
ffffffff80203ddd:	48 89 e5             	mov    %rsp,%rbp
ffffffff80203de0:	48 83 ec 18          	sub    $0x18,%rsp
ffffffff80203de4:	48 89 7d e8          	mov    %rdi,-0x18(%rbp)
ffffffff80203de8:	48 8b 45 e8          	mov    -0x18(%rbp),%rax
ffffffff80203dec:	48 8b 00             	mov    (%rax),%rax
ffffffff80203def:	48 83 c0 10          	add    $0x10,%rax
ffffffff80203df3:	48 c1 e0 04          	shl    $0x4,%rax
ffffffff80203df7:	48 89 c2             	mov    %rax,%rdx
ffffffff80203dfa:	48 8b 45 e8          	mov    -0x18(%rbp),%rax
ffffffff80203dfe:	48 01 d0             	add    %rdx,%rax
ffffffff80203e01:	48 89 45 f8          	mov    %rax,-0x8(%rbp)
ffffffff80203e05:	48 8b 15 f4 04 01 00 	mov    0x104f4(%rip),%rdx        # ffffffff80214300 <start>
ffffffff80203e0c:	48 8b 05 f5 04 01 00 	mov    0x104f5(%rip),%rax        # ffffffff80214308 <g_size>
ffffffff80203e13:	48 c1 e0 04          	shl    $0x4,%rax
ffffffff80203e17:	48 01 d0             	add    %rdx,%rax
ffffffff80203e1a:	48 39 45 f8          	cmp    %rax,-0x8(%rbp)
ffffffff80203e1e:	73 06                	jae    ffffffff80203e26 <_Z12GetNextBlockP11MemoryBlock+0x4e>
ffffffff80203e20:	48 8b 45 f8          	mov    -0x8(%rbp),%rax
ffffffff80203e24:	eb 05                	jmp    ffffffff80203e2b <_Z12GetNextBlockP11MemoryBlock+0x53>
ffffffff80203e26:	b8 00 00 00 00       	mov    $0x0,%eax
ffffffff80203e2b:	c9                   	leave  
ffffffff80203e2c:	c3                   	ret    

ffffffff80203e2d <_ZN4Heap10InitializeEv>:
ffffffff80203e2d:	f3 0f 1e fa          	endbr64 
ffffffff80203e31:	55                   	push   %rbp
ffffffff80203e32:	48 89 e5             	mov    %rsp,%rbp
ffffffff80203e35:	48 b8 00 00 00 00 00 	movabs $0xffffa00000000000,%rax
ffffffff80203e3c:	a0 ff ff 
ffffffff80203e3f:	48 89 05 ba 04 01 00 	mov    %rax,0x104ba(%rip)        # ffffffff80214300 <start>
ffffffff80203e46:	48 8b 05 b3 04 01 00 	mov    0x104b3(%rip),%rax        # ffffffff80214300 <start>
ffffffff80203e4d:	c6 40 08 01          	movb   $0x1,0x8(%rax)
ffffffff80203e51:	48 8b 05 a8 04 01 00 	mov    0x104a8(%rip),%rax        # ffffffff80214300 <start>
ffffffff80203e58:	48 c7 00 f0 7f 00 00 	movq   $0x7ff0,(%rax)
ffffffff80203e5f:	48 c7 05 9e 04 01 00 	movq   $0x8000,0x1049e(%rip)        # ffffffff80214308 <g_size>
ffffffff80203e66:	00 80 00 00 
ffffffff80203e6a:	90                   	nop
ffffffff80203e6b:	5d                   	pop    %rbp
ffffffff80203e6c:	c3                   	ret    

ffffffff80203e6d <_ZN4Heap5allocEm>:
ffffffff80203e6d:	f3 0f 1e fa          	endbr64 
ffffffff80203e71:	55                   	push   %rbp
ffffffff80203e72:	48 89 e5             	mov    %rsp,%rbp
ffffffff80203e75:	48 83 ec 28          	sub    $0x28,%rsp
ffffffff80203e79:	48 89 7d d8          	mov    %rdi,-0x28(%rbp)
ffffffff80203e7d:	48 8b 05 7c 04 01 00 	mov    0x1047c(%rip),%rax        # ffffffff80214300 <start>
ffffffff80203e84:	48 89 45 f8          	mov    %rax,-0x8(%rbp)
ffffffff80203e88:	e9 b1 00 00 00       	jmp    ffffffff80203f3e <_ZN4Heap5allocEm+0xd1>
ffffffff80203e8d:	48 8b 45 f8          	mov    -0x8(%rbp),%rax
ffffffff80203e91:	48 89 c7             	mov    %rax,%rdi
ffffffff80203e94:	e8 be fe ff ff       	call   ffffffff80203d57 <_Z15ContinousMemoryP11MemoryBlock>
ffffffff80203e99:	48 89 45 f0          	mov    %rax,-0x10(%rbp)
ffffffff80203e9d:	48 8b 45 f0          	mov    -0x10(%rbp),%rax
ffffffff80203ea1:	48 3b 45 d8          	cmp    -0x28(%rbp),%rax
ffffffff80203ea5:	0f 86 83 00 00 00    	jbe    ffffffff80203f2e <_ZN4Heap5allocEm+0xc1>
ffffffff80203eab:	48 8b 45 f8          	mov    -0x8(%rbp),%rax
ffffffff80203eaf:	c6 40 08 00          	movb   $0x0,0x8(%rax)
ffffffff80203eb3:	48 8b 45 f8          	mov    -0x8(%rbp),%rax
ffffffff80203eb7:	48 8b 00             	mov    (%rax),%rax
ffffffff80203eba:	48 8b 55 d8          	mov    -0x28(%rbp),%rdx
ffffffff80203ebe:	48 83 c2 10          	add    $0x10,%rdx
ffffffff80203ec2:	48 39 d0             	cmp    %rdx,%rax
ffffffff80203ec5:	76 5b                	jbe    ffffffff80203f22 <_ZN4Heap5allocEm+0xb5>
ffffffff80203ec7:	48 8b 45 d8          	mov    -0x28(%rbp),%rax
ffffffff80203ecb:	48 83 c0 10          	add    $0x10,%rax
ffffffff80203ecf:	48 c1 e0 04          	shl    $0x4,%rax
ffffffff80203ed3:	48 89 c2             	mov    %rax,%rdx
ffffffff80203ed6:	48 8b 45 f8          	mov    -0x8(%rbp),%rax
ffffffff80203eda:	48 01 d0             	add    %rdx,%rax
ffffffff80203edd:	48 89 45 e8          	mov    %rax,-0x18(%rbp)
ffffffff80203ee1:	48 8b 15 18 04 01 00 	mov    0x10418(%rip),%rdx        # ffffffff80214300 <start>
ffffffff80203ee8:	48 8b 05 19 04 01 00 	mov    0x10419(%rip),%rax        # ffffffff80214308 <g_size>
ffffffff80203eef:	48 c1 e0 04          	shl    $0x4,%rax
ffffffff80203ef3:	48 01 d0             	add    %rdx,%rax
ffffffff80203ef6:	48 39 45 e8          	cmp    %rax,-0x18(%rbp)
ffffffff80203efa:	73 26                	jae    ffffffff80203f22 <_ZN4Heap5allocEm+0xb5>
ffffffff80203efc:	48 8b 45 e8          	mov    -0x18(%rbp),%rax
ffffffff80203f00:	c6 40 08 01          	movb   $0x1,0x8(%rax)
ffffffff80203f04:	48 8b 45 f0          	mov    -0x10(%rbp),%rax
ffffffff80203f08:	48 2b 45 d8          	sub    -0x28(%rbp),%rax
ffffffff80203f0c:	48 8d 50 f0          	lea    -0x10(%rax),%rdx
ffffffff80203f10:	48 8b 45 e8          	mov    -0x18(%rbp),%rax
ffffffff80203f14:	48 89 10             	mov    %rdx,(%rax)
ffffffff80203f17:	48 8b 45 f8          	mov    -0x8(%rbp),%rax
ffffffff80203f1b:	48 8b 55 d8          	mov    -0x28(%rbp),%rdx
ffffffff80203f1f:	48 89 10             	mov    %rdx,(%rax)
ffffffff80203f22:	48 8b 45 f8          	mov    -0x8(%rbp),%rax
ffffffff80203f26:	48 05 00 01 00 00    	add    $0x100,%rax
ffffffff80203f2c:	eb 20                	jmp    ffffffff80203f4e <_ZN4Heap5allocEm+0xe1>
ffffffff80203f2e:	48 8b 45 f8          	mov    -0x8(%rbp),%rax
ffffffff80203f32:	48 89 c7             	mov    %rax,%rdi
ffffffff80203f35:	e8 9e fe ff ff       	call   ffffffff80203dd8 <_Z12GetNextBlockP11MemoryBlock>
ffffffff80203f3a:	48 89 45 f8          	mov    %rax,-0x8(%rbp)
ffffffff80203f3e:	48 83 7d f8 00       	cmpq   $0x0,-0x8(%rbp)
ffffffff80203f43:	0f 85 44 ff ff ff    	jne    ffffffff80203e8d <_ZN4Heap5allocEm+0x20>
ffffffff80203f49:	b8 00 00 00 00       	mov    $0x0,%eax
ffffffff80203f4e:	c9                   	leave  
ffffffff80203f4f:	c3                   	ret    

ffffffff80203f50 <_ZN4Heap4freeEPv>:
ffffffff80203f50:	f3 0f 1e fa          	endbr64 
ffffffff80203f54:	55                   	push   %rbp
ffffffff80203f55:	48 89 e5             	mov    %rsp,%rbp
ffffffff80203f58:	48 83 ec 18          	sub    $0x18,%rsp
ffffffff80203f5c:	48 89 7d e8          	mov    %rdi,-0x18(%rbp)
ffffffff80203f60:	48 8b 45 e8          	mov    -0x18(%rbp),%rax
ffffffff80203f64:	48 2d 00 01 00 00    	sub    $0x100,%rax
ffffffff80203f6a:	48 89 45 f8          	mov    %rax,-0x8(%rbp)
ffffffff80203f6e:	48 8b 45 f8          	mov    -0x8(%rbp),%rax
ffffffff80203f72:	c6 40 08 00          	movb   $0x0,0x8(%rax)
ffffffff80203f76:	90                   	nop
ffffffff80203f77:	c9                   	leave  
ffffffff80203f78:	c3                   	ret    

ffffffff80203f79 <_Znwm>:
ffffffff80203f79:	f3 0f 1e fa          	endbr64 
ffffffff80203f7d:	55                   	push   %rbp
ffffffff80203f7e:	48 89 e5             	mov    %rsp,%rbp
ffffffff80203f81:	48 83 ec 08          	sub    $0x8,%rsp
ffffffff80203f85:	48 89 7d f8          	mov    %rdi,-0x8(%rbp)
ffffffff80203f89:	48 8b 45 f8          	mov    -0x8(%rbp),%rax
ffffffff80203f8d:	48 89 c7             	mov    %rax,%rdi
ffffffff80203f90:	e8 d8 fe ff ff       	call   ffffffff80203e6d <_ZN4Heap5allocEm>
ffffffff80203f95:	c9                   	leave  
ffffffff80203f96:	c3                   	ret    

ffffffff80203f97 <_Znam>:
ffffffff80203f97:	f3 0f 1e fa          	endbr64 
ffffffff80203f9b:	55                   	push   %rbp
ffffffff80203f9c:	48 89 e5             	mov    %rsp,%rbp
ffffffff80203f9f:	48 83 ec 08          	sub    $0x8,%rsp
ffffffff80203fa3:	48 89 7d f8          	mov    %rdi,-0x8(%rbp)
ffffffff80203fa7:	48 8b 45 f8          	mov    -0x8(%rbp),%rax
ffffffff80203fab:	48 89 c7             	mov    %rax,%rdi
ffffffff80203fae:	e8 ba fe ff ff       	call   ffffffff80203e6d <_ZN4Heap5allocEm>
ffffffff80203fb3:	c9                   	leave  
ffffffff80203fb4:	c3                   	ret    

ffffffff80203fb5 <_Z16RegisterIDTEntryimhh>:
ffffffff80203fb5:	f3 0f 1e fa          	endbr64 
ffffffff80203fb9:	55                   	push   %rbp
ffffffff80203fba:	48 89 e5             	mov    %rsp,%rbp
ffffffff80203fbd:	48 83 ec 18          	sub    $0x18,%rsp
ffffffff80203fc1:	89 7d fc             	mov    %edi,-0x4(%rbp)
ffffffff80203fc4:	48 89 75 f0          	mov    %rsi,-0x10(%rbp)
ffffffff80203fc8:	89 c8                	mov    %ecx,%eax
ffffffff80203fca:	88 55 f8             	mov    %dl,-0x8(%rbp)
ffffffff80203fcd:	88 45 ec             	mov    %al,-0x14(%rbp)
ffffffff80203fd0:	8b 45 fc             	mov    -0x4(%rbp),%eax
ffffffff80203fd3:	48 98                	cltq   
ffffffff80203fd5:	48 c1 e0 04          	shl    $0x4,%rax
ffffffff80203fd9:	48 8d 90 24 4b 21 80 	lea    -0x7fdeb4dc(%rax),%rdx
ffffffff80203fe0:	0f b6 45 ec          	movzbl -0x14(%rbp),%eax
ffffffff80203fe4:	88 02                	mov    %al,(%rdx)
ffffffff80203fe6:	8b 45 fc             	mov    -0x4(%rbp),%eax
ffffffff80203fe9:	48 98                	cltq   
ffffffff80203feb:	48 c1 e0 04          	shl    $0x4,%rax
ffffffff80203fef:	48 05 22 4b 21 80    	add    $0xffffffff80214b22,%rax
ffffffff80203ff5:	66 c7 00 08 00       	movw   $0x8,(%rax)
ffffffff80203ffa:	8b 45 fc             	mov    -0x4(%rbp),%eax
ffffffff80203ffd:	48 98                	cltq   
ffffffff80203fff:	48 c1 e0 04          	shl    $0x4,%rax
ffffffff80204003:	48 8d 90 25 4b 21 80 	lea    -0x7fdeb4db(%rax),%rdx
ffffffff8020400a:	0f b6 45 f8          	movzbl -0x8(%rbp),%eax
ffffffff8020400e:	88 02                	mov    %al,(%rdx)
ffffffff80204010:	8b 45 fc             	mov    -0x4(%rbp),%eax
ffffffff80204013:	48 98                	cltq   
ffffffff80204015:	48 c1 e0 04          	shl    $0x4,%rax
ffffffff80204019:	48 05 2c 4b 21 80    	add    $0xffffffff80214b2c,%rax
ffffffff8020401f:	c7 00 00 00 00 00    	movl   $0x0,(%rax)
ffffffff80204025:	48 8b 45 f0          	mov    -0x10(%rbp),%rax
ffffffff80204029:	89 c2                	mov    %eax,%edx
ffffffff8020402b:	8b 45 fc             	mov    -0x4(%rbp),%eax
ffffffff8020402e:	48 98                	cltq   
ffffffff80204030:	48 c1 e0 04          	shl    $0x4,%rax
ffffffff80204034:	48 05 20 4b 21 80    	add    $0xffffffff80214b20,%rax
ffffffff8020403a:	66 89 10             	mov    %dx,(%rax)
ffffffff8020403d:	48 8b 45 f0          	mov    -0x10(%rbp),%rax
ffffffff80204041:	48 c1 e8 10          	shr    $0x10,%rax
ffffffff80204045:	89 c2                	mov    %eax,%edx
ffffffff80204047:	8b 45 fc             	mov    -0x4(%rbp),%eax
ffffffff8020404a:	48 98                	cltq   
ffffffff8020404c:	48 c1 e0 04          	shl    $0x4,%rax
ffffffff80204050:	48 05 26 4b 21 80    	add    $0xffffffff80214b26,%rax
ffffffff80204056:	66 89 10             	mov    %dx,(%rax)
ffffffff80204059:	48 8b 45 f0          	mov    -0x10(%rbp),%rax
ffffffff8020405d:	48 c1 e8 20          	shr    $0x20,%rax
ffffffff80204061:	89 c2                	mov    %eax,%edx
ffffffff80204063:	8b 45 fc             	mov    -0x4(%rbp),%eax
ffffffff80204066:	48 98                	cltq   
ffffffff80204068:	48 c1 e0 04          	shl    $0x4,%rax
ffffffff8020406c:	48 05 28 4b 21 80    	add    $0xffffffff80214b28,%rax
ffffffff80204072:	89 10                	mov    %edx,(%rax)
ffffffff80204074:	90                   	nop
ffffffff80204075:	c9                   	leave  
ffffffff80204076:	c3                   	ret    

ffffffff80204077 <InterruptHandler>:
ffffffff80204077:	f3 0f 1e fa          	endbr64 
ffffffff8020407b:	55                   	push   %rbp
ffffffff8020407c:	48 89 e5             	mov    %rsp,%rbp
ffffffff8020407f:	48 83 ec 20          	sub    $0x20,%rsp
ffffffff80204083:	48 89 7d e8          	mov    %rdi,-0x18(%rbp)
ffffffff80204087:	48 8b 45 e8          	mov    -0x18(%rbp),%rax
ffffffff8020408b:	48 8b 40 48          	mov    0x48(%rax),%rax
ffffffff8020408f:	88 45 ff             	mov    %al,-0x1(%rbp)
ffffffff80204092:	0f b6 45 ff          	movzbl -0x1(%rbp),%eax
ffffffff80204096:	48 98                	cltq   
ffffffff80204098:	48 8b 04 c5 20 43 21 	mov    -0x7fdebce0(,%rax,8),%rax
ffffffff8020409f:	80 
ffffffff802040a0:	48 85 c0             	test   %rax,%rax
ffffffff802040a3:	75 1b                	jne    ffffffff802040c0 <InterruptHandler+0x49>
ffffffff802040a5:	0f b6 45 ff          	movzbl -0x1(%rbp),%eax
ffffffff802040a9:	89 c6                	mov    %eax,%esi
ffffffff802040ab:	48 c7 c7 c0 10 20 80 	mov    $0xffffffff802010c0,%rdi
ffffffff802040b2:	b8 00 00 00 00       	mov    $0x0,%eax
ffffffff802040b7:	e8 ee 23 00 00       	call   ffffffff802064aa <_ZN3VGA12print_formatEPKcz>
ffffffff802040bc:	fa                   	cli    
ffffffff802040bd:	f4                   	hlt    
ffffffff802040be:	eb fd                	jmp    ffffffff802040bd <InterruptHandler+0x46>
ffffffff802040c0:	0f b6 45 ff          	movzbl -0x1(%rbp),%eax
ffffffff802040c4:	48 98                	cltq   
ffffffff802040c6:	48 8b 14 c5 20 43 21 	mov    -0x7fdebce0(,%rax,8),%rdx
ffffffff802040cd:	80 
ffffffff802040ce:	48 8b 45 e8          	mov    -0x18(%rbp),%rax
ffffffff802040d2:	48 89 c7             	mov    %rax,%rdi
ffffffff802040d5:	ff d2                	call   *%rdx
ffffffff802040d7:	c9                   	leave  
ffffffff802040d8:	c3                   	ret    

ffffffff802040d9 <_ZN3IDT4InitEv>:
ffffffff802040d9:	f3 0f 1e fa          	endbr64 
ffffffff802040dd:	55                   	push   %rbp
ffffffff802040de:	48 89 e5             	mov    %rsp,%rbp
ffffffff802040e1:	48 83 ec 10          	sub    $0x10,%rsp
ffffffff802040e5:	c7 45 fc 00 00 00 00 	movl   $0x0,-0x4(%rbp)
ffffffff802040ec:	eb 25                	jmp    ffffffff80204113 <_ZN3IDT4InitEv+0x3a>
ffffffff802040ee:	8b 45 fc             	mov    -0x4(%rbp),%eax
ffffffff802040f1:	48 98                	cltq   
ffffffff802040f3:	48 8b 34 c5 00 70 20 	mov    -0x7fdf9000(,%rax,8),%rsi
ffffffff802040fa:	80 
ffffffff802040fb:	8b 45 fc             	mov    -0x4(%rbp),%eax
ffffffff802040fe:	b9 00 00 00 00       	mov    $0x0,%ecx
ffffffff80204103:	ba 8e 00 00 00       	mov    $0x8e,%edx
ffffffff80204108:	89 c7                	mov    %eax,%edi
ffffffff8020410a:	e8 a6 fe ff ff       	call   ffffffff80203fb5 <_Z16RegisterIDTEntryimhh>
ffffffff8020410f:	83 45 fc 01          	addl   $0x1,-0x4(%rbp)
ffffffff80204113:	81 7d fc ff 00 00 00 	cmpl   $0xff,-0x4(%rbp)
ffffffff8020411a:	7e d2                	jle    ffffffff802040ee <_ZN3IDT4InitEv+0x15>
ffffffff8020411c:	48 c7 c0 20 4b 21 80 	mov    $0xffffffff80214b20,%rax
ffffffff80204123:	48 89 05 f8 19 01 00 	mov    %rax,0x119f8(%rip)        # ffffffff80215b22 <_ZL13idtDescriptor+0x2>
ffffffff8020412a:	66 c7 05 ed 19 01 00 	movw   $0xfff,0x119ed(%rip)        # ffffffff80215b20 <_ZL13idtDescriptor>
ffffffff80204131:	ff 0f 
ffffffff80204133:	0f 01 1d e6 19 01 00 	lidt   0x119e6(%rip)        # ffffffff80215b20 <_ZL13idtDescriptor>
ffffffff8020413a:	fb                   	sti    
ffffffff8020413b:	90                   	nop
ffffffff8020413c:	c9                   	leave  
ffffffff8020413d:	c3                   	ret    

ffffffff8020413e <_ZN3IDT13RegisterEntryEiPFPNS_11registers_tES1_E>:
ffffffff8020413e:	f3 0f 1e fa          	endbr64 
ffffffff80204142:	55                   	push   %rbp
ffffffff80204143:	48 89 e5             	mov    %rsp,%rbp
ffffffff80204146:	48 83 ec 10          	sub    $0x10,%rsp
ffffffff8020414a:	89 7d fc             	mov    %edi,-0x4(%rbp)
ffffffff8020414d:	48 89 75 f0          	mov    %rsi,-0x10(%rbp)
ffffffff80204151:	8b 45 fc             	mov    -0x4(%rbp),%eax
ffffffff80204154:	48 98                	cltq   
ffffffff80204156:	48 8b 55 f0          	mov    -0x10(%rbp),%rdx
ffffffff8020415a:	48 89 14 c5 20 43 21 	mov    %rdx,-0x7fdebce0(,%rax,8)
ffffffff80204161:	80 
ffffffff80204162:	90                   	nop
ffffffff80204163:	c9                   	leave  
ffffffff80204164:	c3                   	ret    
ffffffff80204165:	90                   	nop

ffffffff80204166 <_ZN6IOAPIC8WriteRegEjj>:
ffffffff80204166:	f3 0f 1e fa          	endbr64 
ffffffff8020416a:	55                   	push   %rbp
ffffffff8020416b:	48 89 e5             	mov    %rsp,%rbp
ffffffff8020416e:	48 83 ec 10          	sub    $0x10,%rsp
ffffffff80204172:	48 89 7d f8          	mov    %rdi,-0x8(%rbp)
ffffffff80204176:	89 75 f4             	mov    %esi,-0xc(%rbp)
ffffffff80204179:	89 55 f0             	mov    %edx,-0x10(%rbp)
ffffffff8020417c:	48 8b 45 f8          	mov    -0x8(%rbp),%rax
ffffffff80204180:	48 8b 00             	mov    (%rax),%rax
ffffffff80204183:	8b 55 f4             	mov    -0xc(%rbp),%edx
ffffffff80204186:	89 10                	mov    %edx,(%rax)
ffffffff80204188:	48 8b 45 f8          	mov    -0x8(%rbp),%rax
ffffffff8020418c:	48 8b 00             	mov    (%rax),%rax
ffffffff8020418f:	8b 55 f0             	mov    -0x10(%rbp),%edx
ffffffff80204192:	89 50 10             	mov    %edx,0x10(%rax)
ffffffff80204195:	90                   	nop
ffffffff80204196:	c9                   	leave  
ffffffff80204197:	c3                   	ret    

ffffffff80204198 <_ZN6IOAPIC10WriteReg64Ejm>:
ffffffff80204198:	f3 0f 1e fa          	endbr64 
ffffffff8020419c:	55                   	push   %rbp
ffffffff8020419d:	48 89 e5             	mov    %rsp,%rbp
ffffffff802041a0:	48 83 ec 28          	sub    $0x28,%rsp
ffffffff802041a4:	48 89 7d e8          	mov    %rdi,-0x18(%rbp)
ffffffff802041a8:	89 75 e4             	mov    %esi,-0x1c(%rbp)
ffffffff802041ab:	48 89 55 d8          	mov    %rdx,-0x28(%rbp)
ffffffff802041af:	48 8b 45 d8          	mov    -0x28(%rbp),%rax
ffffffff802041b3:	89 45 fc             	mov    %eax,-0x4(%rbp)
ffffffff802041b6:	48 8b 45 d8          	mov    -0x28(%rbp),%rax
ffffffff802041ba:	48 c1 e8 20          	shr    $0x20,%rax
ffffffff802041be:	89 45 f8             	mov    %eax,-0x8(%rbp)
ffffffff802041c1:	8b 55 fc             	mov    -0x4(%rbp),%edx
ffffffff802041c4:	8b 4d e4             	mov    -0x1c(%rbp),%ecx
ffffffff802041c7:	48 8b 45 e8          	mov    -0x18(%rbp),%rax
ffffffff802041cb:	89 ce                	mov    %ecx,%esi
ffffffff802041cd:	48 89 c7             	mov    %rax,%rdi
ffffffff802041d0:	e8 91 ff ff ff       	call   ffffffff80204166 <_ZN6IOAPIC8WriteRegEjj>
ffffffff802041d5:	8b 45 e4             	mov    -0x1c(%rbp),%eax
ffffffff802041d8:	8d 48 01             	lea    0x1(%rax),%ecx
ffffffff802041db:	8b 55 f8             	mov    -0x8(%rbp),%edx
ffffffff802041de:	48 8b 45 e8          	mov    -0x18(%rbp),%rax
ffffffff802041e2:	89 ce                	mov    %ecx,%esi
ffffffff802041e4:	48 89 c7             	mov    %rax,%rdi
ffffffff802041e7:	e8 7a ff ff ff       	call   ffffffff80204166 <_ZN6IOAPIC8WriteRegEjj>
ffffffff802041ec:	90                   	nop
ffffffff802041ed:	c9                   	leave  
ffffffff802041ee:	c3                   	ret    
ffffffff802041ef:	90                   	nop

ffffffff802041f0 <_ZN6IOAPIC7ReadRegEj>:
ffffffff802041f0:	f3 0f 1e fa          	endbr64 
ffffffff802041f4:	55                   	push   %rbp
ffffffff802041f5:	48 89 e5             	mov    %rsp,%rbp
ffffffff802041f8:	48 83 ec 10          	sub    $0x10,%rsp
ffffffff802041fc:	48 89 7d f8          	mov    %rdi,-0x8(%rbp)
ffffffff80204200:	89 75 f4             	mov    %esi,-0xc(%rbp)
ffffffff80204203:	48 8b 45 f8          	mov    -0x8(%rbp),%rax
ffffffff80204207:	48 8b 00             	mov    (%rax),%rax
ffffffff8020420a:	8b 55 f4             	mov    -0xc(%rbp),%edx
ffffffff8020420d:	89 10                	mov    %edx,(%rax)
ffffffff8020420f:	48 8b 45 f8          	mov    -0x8(%rbp),%rax
ffffffff80204213:	48 8b 00             	mov    (%rax),%rax
ffffffff80204216:	8b 40 10             	mov    0x10(%rax),%eax
ffffffff80204219:	c9                   	leave  
ffffffff8020421a:	c3                   	ret    
ffffffff8020421b:	90                   	nop

ffffffff8020421c <_ZN6IOAPICC1Em>:
ffffffff8020421c:	f3 0f 1e fa          	endbr64 
ffffffff80204220:	55                   	push   %rbp
ffffffff80204221:	48 89 e5             	mov    %rsp,%rbp
ffffffff80204224:	48 83 ec 20          	sub    $0x20,%rsp
ffffffff80204228:	48 89 7d e8          	mov    %rdi,-0x18(%rbp)
ffffffff8020422c:	48 89 75 e0          	mov    %rsi,-0x20(%rbp)
ffffffff80204230:	48 8b 55 e0          	mov    -0x20(%rbp),%rdx
ffffffff80204234:	48 8b 45 e8          	mov    -0x18(%rbp),%rax
ffffffff80204238:	48 89 10             	mov    %rdx,(%rax)
ffffffff8020423b:	48 8b 55 e0          	mov    -0x20(%rbp),%rdx
ffffffff8020423f:	48 8b 45 e0          	mov    -0x20(%rbp),%rax
ffffffff80204243:	b9 13 00 00 00       	mov    $0x13,%ecx
ffffffff80204248:	48 89 c6             	mov    %rax,%rsi
ffffffff8020424b:	bf 00 00 00 00       	mov    $0x0,%edi
ffffffff80204250:	e8 5c 23 00 00       	call   ffffffff802065b1 <_ZN13VirtualMemory7MapPageEPNS_13PageMapLevel4Emmi>
ffffffff80204255:	48 8b 45 e8          	mov    -0x18(%rbp),%rax
ffffffff80204259:	be 01 00 00 00       	mov    $0x1,%esi
ffffffff8020425e:	48 89 c7             	mov    %rax,%rdi
ffffffff80204261:	e8 8a ff ff ff       	call   ffffffff802041f0 <_ZN6IOAPIC7ReadRegEj>
ffffffff80204266:	c1 e8 10             	shr    $0x10,%eax
ffffffff80204269:	25 ff 00 00 00       	and    $0xff,%eax
ffffffff8020426e:	89 45 fc             	mov    %eax,-0x4(%rbp)
ffffffff80204271:	48 8b 45 e8          	mov    -0x18(%rbp),%rax
ffffffff80204275:	be 00 00 00 00       	mov    $0x0,%esi
ffffffff8020427a:	48 89 c7             	mov    %rax,%rdi
ffffffff8020427d:	e8 6e ff ff ff       	call   ffffffff802041f0 <_ZN6IOAPIC7ReadRegEj>
ffffffff80204282:	c1 e8 18             	shr    $0x18,%eax
ffffffff80204285:	89 45 f8             	mov    %eax,-0x8(%rbp)
ffffffff80204288:	8b 55 fc             	mov    -0x4(%rbp),%edx
ffffffff8020428b:	8b 45 f8             	mov    -0x8(%rbp),%eax
ffffffff8020428e:	89 c6                	mov    %eax,%esi
ffffffff80204290:	48 c7 c7 e0 10 20 80 	mov    $0xffffffff802010e0,%rdi
ffffffff80204297:	b8 00 00 00 00       	mov    $0x0,%eax
ffffffff8020429c:	e8 09 22 00 00       	call   ffffffff802064aa <_ZN3VGA12print_formatEPKcz>
ffffffff802042a1:	90                   	nop
ffffffff802042a2:	c9                   	leave  
ffffffff802042a3:	c3                   	ret    

ffffffff802042a4 <_ZN6IOAPIC8RedirectEhhj>:
ffffffff802042a4:	f3 0f 1e fa          	endbr64 
ffffffff802042a8:	55                   	push   %rbp
ffffffff802042a9:	48 89 e5             	mov    %rsp,%rbp
ffffffff802042ac:	48 83 ec 20          	sub    $0x20,%rsp
ffffffff802042b0:	48 89 7d f8          	mov    %rdi,-0x8(%rbp)
ffffffff802042b4:	89 d0                	mov    %edx,%eax
ffffffff802042b6:	89 4d ec             	mov    %ecx,-0x14(%rbp)
ffffffff802042b9:	89 f2                	mov    %esi,%edx
ffffffff802042bb:	88 55 f4             	mov    %dl,-0xc(%rbp)
ffffffff802042be:	88 45 f0             	mov    %al,-0x10(%rbp)
ffffffff802042c1:	0f b6 55 f0          	movzbl -0x10(%rbp),%edx
ffffffff802042c5:	0f b6 45 f4          	movzbl -0xc(%rbp),%eax
ffffffff802042c9:	89 c6                	mov    %eax,%esi
ffffffff802042cb:	48 c7 c7 16 11 20 80 	mov    $0xffffffff80201116,%rdi
ffffffff802042d2:	b8 00 00 00 00       	mov    $0x0,%eax
ffffffff802042d7:	e8 ce 21 00 00       	call   ffffffff802064aa <_ZN3VGA12print_formatEPKcz>
ffffffff802042dc:	0f b6 45 f0          	movzbl -0x10(%rbp),%eax
ffffffff802042e0:	0b 45 ec             	or     -0x14(%rbp),%eax
ffffffff802042e3:	89 c2                	mov    %eax,%edx
ffffffff802042e5:	0f b6 45 f4          	movzbl -0xc(%rbp),%eax
ffffffff802042e9:	83 c0 08             	add    $0x8,%eax
ffffffff802042ec:	01 c0                	add    %eax,%eax
ffffffff802042ee:	89 c1                	mov    %eax,%ecx
ffffffff802042f0:	48 8b 45 f8          	mov    -0x8(%rbp),%rax
ffffffff802042f4:	89 ce                	mov    %ecx,%esi
ffffffff802042f6:	48 89 c7             	mov    %rax,%rdi
ffffffff802042f9:	e8 9a fe ff ff       	call   ffffffff80204198 <_ZN6IOAPIC10WriteReg64Ejm>
ffffffff802042fe:	90                   	nop
ffffffff802042ff:	c9                   	leave  
ffffffff80204300:	c3                   	ret    
ffffffff80204301:	66 2e 0f 1f 84 00 00 	cs nopw 0x0(%rax,%rax,1)
ffffffff80204308:	00 00 00 
ffffffff8020430b:	0f 1f 44 00 00       	nopl   0x0(%rax,%rax,1)

ffffffff80204310 <isr0>:
ffffffff80204310:	6a 00                	push   $0x0
ffffffff80204312:	c7 44 24 04 00 00 00 	movl   $0x0,0x4(%rsp)
ffffffff80204319:	00 
ffffffff8020431a:	e9 30 09 00 00       	jmp    ffffffff80204c4f <isr_common>

ffffffff8020431f <isr1>:
ffffffff8020431f:	6a 00                	push   $0x0
ffffffff80204321:	c7 44 24 04 01 00 00 	movl   $0x1,0x4(%rsp)
ffffffff80204328:	00 
ffffffff80204329:	e9 21 09 00 00       	jmp    ffffffff80204c4f <isr_common>

ffffffff8020432e <isr2>:
ffffffff8020432e:	6a 00                	push   $0x0
ffffffff80204330:	c7 44 24 04 02 00 00 	movl   $0x2,0x4(%rsp)
ffffffff80204337:	00 
ffffffff80204338:	e9 12 09 00 00       	jmp    ffffffff80204c4f <isr_common>

ffffffff8020433d <isr3>:
ffffffff8020433d:	6a 00                	push   $0x0
ffffffff8020433f:	c7 44 24 04 03 00 00 	movl   $0x3,0x4(%rsp)
ffffffff80204346:	00 
ffffffff80204347:	e9 03 09 00 00       	jmp    ffffffff80204c4f <isr_common>

ffffffff8020434c <isr4>:
ffffffff8020434c:	6a 00                	push   $0x0
ffffffff8020434e:	c7 44 24 04 04 00 00 	movl   $0x4,0x4(%rsp)
ffffffff80204355:	00 
ffffffff80204356:	e9 f4 08 00 00       	jmp    ffffffff80204c4f <isr_common>

ffffffff8020435b <isr5>:
ffffffff8020435b:	6a 00                	push   $0x0
ffffffff8020435d:	c7 44 24 04 05 00 00 	movl   $0x5,0x4(%rsp)
ffffffff80204364:	00 
ffffffff80204365:	e9 e5 08 00 00       	jmp    ffffffff80204c4f <isr_common>

ffffffff8020436a <isr6>:
ffffffff8020436a:	6a 00                	push   $0x0
ffffffff8020436c:	c7 44 24 04 06 00 00 	movl   $0x6,0x4(%rsp)
ffffffff80204373:	00 
ffffffff80204374:	e9 d6 08 00 00       	jmp    ffffffff80204c4f <isr_common>

ffffffff80204379 <isr7>:
ffffffff80204379:	6a 00                	push   $0x0
ffffffff8020437b:	c7 44 24 04 07 00 00 	movl   $0x7,0x4(%rsp)
ffffffff80204382:	00 
ffffffff80204383:	e9 c7 08 00 00       	jmp    ffffffff80204c4f <isr_common>

ffffffff80204388 <isr8>:
ffffffff80204388:	c7 44 24 04 08 00 00 	movl   $0x8,0x4(%rsp)
ffffffff8020438f:	00 
ffffffff80204390:	e9 ba 08 00 00       	jmp    ffffffff80204c4f <isr_common>

ffffffff80204395 <isr9>:
ffffffff80204395:	6a 00                	push   $0x0
ffffffff80204397:	c7 44 24 04 09 00 00 	movl   $0x9,0x4(%rsp)
ffffffff8020439e:	00 
ffffffff8020439f:	e9 ab 08 00 00       	jmp    ffffffff80204c4f <isr_common>

ffffffff802043a4 <isr10>:
ffffffff802043a4:	c7 44 24 04 0a 00 00 	movl   $0xa,0x4(%rsp)
ffffffff802043ab:	00 
ffffffff802043ac:	e9 9e 08 00 00       	jmp    ffffffff80204c4f <isr_common>

ffffffff802043b1 <isr11>:
ffffffff802043b1:	c7 44 24 04 0b 00 00 	movl   $0xb,0x4(%rsp)
ffffffff802043b8:	00 
ffffffff802043b9:	e9 91 08 00 00       	jmp    ffffffff80204c4f <isr_common>

ffffffff802043be <isr12>:
ffffffff802043be:	c7 44 24 04 0c 00 00 	movl   $0xc,0x4(%rsp)
ffffffff802043c5:	00 
ffffffff802043c6:	e9 84 08 00 00       	jmp    ffffffff80204c4f <isr_common>

ffffffff802043cb <isr13>:
ffffffff802043cb:	c7 44 24 04 0d 00 00 	movl   $0xd,0x4(%rsp)
ffffffff802043d2:	00 
ffffffff802043d3:	e9 77 08 00 00       	jmp    ffffffff80204c4f <isr_common>

ffffffff802043d8 <isr14>:
ffffffff802043d8:	c7 44 24 04 0e 00 00 	movl   $0xe,0x4(%rsp)
ffffffff802043df:	00 
ffffffff802043e0:	e9 6a 08 00 00       	jmp    ffffffff80204c4f <isr_common>

ffffffff802043e5 <isr15>:
ffffffff802043e5:	6a 00                	push   $0x0
ffffffff802043e7:	c7 44 24 04 0f 00 00 	movl   $0xf,0x4(%rsp)
ffffffff802043ee:	00 
ffffffff802043ef:	e9 5b 08 00 00       	jmp    ffffffff80204c4f <isr_common>

ffffffff802043f4 <isr16>:
ffffffff802043f4:	6a 00                	push   $0x0
ffffffff802043f6:	c7 44 24 04 10 00 00 	movl   $0x10,0x4(%rsp)
ffffffff802043fd:	00 
ffffffff802043fe:	e9 4c 08 00 00       	jmp    ffffffff80204c4f <isr_common>

ffffffff80204403 <isr17>:
ffffffff80204403:	c7 44 24 04 11 00 00 	movl   $0x11,0x4(%rsp)
ffffffff8020440a:	00 
ffffffff8020440b:	e9 3f 08 00 00       	jmp    ffffffff80204c4f <isr_common>

ffffffff80204410 <isr18>:
ffffffff80204410:	6a 00                	push   $0x0
ffffffff80204412:	c7 44 24 04 12 00 00 	movl   $0x12,0x4(%rsp)
ffffffff80204419:	00 
ffffffff8020441a:	e9 30 08 00 00       	jmp    ffffffff80204c4f <isr_common>

ffffffff8020441f <isr19>:
ffffffff8020441f:	6a 00                	push   $0x0
ffffffff80204421:	c7 44 24 04 13 00 00 	movl   $0x13,0x4(%rsp)
ffffffff80204428:	00 
ffffffff80204429:	e9 21 08 00 00       	jmp    ffffffff80204c4f <isr_common>

ffffffff8020442e <isr20>:
ffffffff8020442e:	6a 00                	push   $0x0
ffffffff80204430:	c7 44 24 04 14 00 00 	movl   $0x14,0x4(%rsp)
ffffffff80204437:	00 
ffffffff80204438:	e9 12 08 00 00       	jmp    ffffffff80204c4f <isr_common>

ffffffff8020443d <isr21>:
ffffffff8020443d:	6a 00                	push   $0x0
ffffffff8020443f:	c7 44 24 04 15 00 00 	movl   $0x15,0x4(%rsp)
ffffffff80204446:	00 
ffffffff80204447:	e9 03 08 00 00       	jmp    ffffffff80204c4f <isr_common>

ffffffff8020444c <isr22>:
ffffffff8020444c:	6a 00                	push   $0x0
ffffffff8020444e:	c7 44 24 04 16 00 00 	movl   $0x16,0x4(%rsp)
ffffffff80204455:	00 
ffffffff80204456:	e9 f4 07 00 00       	jmp    ffffffff80204c4f <isr_common>

ffffffff8020445b <isr23>:
ffffffff8020445b:	6a 00                	push   $0x0
ffffffff8020445d:	c7 44 24 04 17 00 00 	movl   $0x17,0x4(%rsp)
ffffffff80204464:	00 
ffffffff80204465:	e9 e5 07 00 00       	jmp    ffffffff80204c4f <isr_common>

ffffffff8020446a <isr24>:
ffffffff8020446a:	6a 00                	push   $0x0
ffffffff8020446c:	c7 44 24 04 18 00 00 	movl   $0x18,0x4(%rsp)
ffffffff80204473:	00 
ffffffff80204474:	e9 d6 07 00 00       	jmp    ffffffff80204c4f <isr_common>

ffffffff80204479 <isr25>:
ffffffff80204479:	6a 00                	push   $0x0
ffffffff8020447b:	c7 44 24 04 19 00 00 	movl   $0x19,0x4(%rsp)
ffffffff80204482:	00 
ffffffff80204483:	e9 c7 07 00 00       	jmp    ffffffff80204c4f <isr_common>

ffffffff80204488 <isr26>:
ffffffff80204488:	6a 00                	push   $0x0
ffffffff8020448a:	c7 44 24 04 1a 00 00 	movl   $0x1a,0x4(%rsp)
ffffffff80204491:	00 
ffffffff80204492:	e9 b8 07 00 00       	jmp    ffffffff80204c4f <isr_common>

ffffffff80204497 <isr27>:
ffffffff80204497:	6a 00                	push   $0x0
ffffffff80204499:	c7 44 24 04 1b 00 00 	movl   $0x1b,0x4(%rsp)
ffffffff802044a0:	00 
ffffffff802044a1:	e9 a9 07 00 00       	jmp    ffffffff80204c4f <isr_common>

ffffffff802044a6 <isr28>:
ffffffff802044a6:	6a 00                	push   $0x0
ffffffff802044a8:	c7 44 24 04 1c 00 00 	movl   $0x1c,0x4(%rsp)
ffffffff802044af:	00 
ffffffff802044b0:	e9 9a 07 00 00       	jmp    ffffffff80204c4f <isr_common>

ffffffff802044b5 <isr29>:
ffffffff802044b5:	6a 00                	push   $0x0
ffffffff802044b7:	c7 44 24 04 1d 00 00 	movl   $0x1d,0x4(%rsp)
ffffffff802044be:	00 
ffffffff802044bf:	e9 8b 07 00 00       	jmp    ffffffff80204c4f <isr_common>

ffffffff802044c4 <isr30>:
ffffffff802044c4:	c7 44 24 04 1e 00 00 	movl   $0x1e,0x4(%rsp)
ffffffff802044cb:	00 
ffffffff802044cc:	e9 7e 07 00 00       	jmp    ffffffff80204c4f <isr_common>

ffffffff802044d1 <isr31>:
ffffffff802044d1:	6a 00                	push   $0x0
ffffffff802044d3:	c7 44 24 04 1f 00 00 	movl   $0x1f,0x4(%rsp)
ffffffff802044da:	00 
ffffffff802044db:	e9 6f 07 00 00       	jmp    ffffffff80204c4f <isr_common>

ffffffff802044e0 <isr32>:
ffffffff802044e0:	6a 20                	push   $0x20
ffffffff802044e2:	e9 68 07 00 00       	jmp    ffffffff80204c4f <isr_common>

ffffffff802044e7 <isr33>:
ffffffff802044e7:	6a 21                	push   $0x21
ffffffff802044e9:	e9 61 07 00 00       	jmp    ffffffff80204c4f <isr_common>

ffffffff802044ee <isr34>:
ffffffff802044ee:	6a 22                	push   $0x22
ffffffff802044f0:	e9 5a 07 00 00       	jmp    ffffffff80204c4f <isr_common>

ffffffff802044f5 <isr35>:
ffffffff802044f5:	6a 23                	push   $0x23
ffffffff802044f7:	e9 53 07 00 00       	jmp    ffffffff80204c4f <isr_common>

ffffffff802044fc <isr36>:
ffffffff802044fc:	6a 24                	push   $0x24
ffffffff802044fe:	e9 4c 07 00 00       	jmp    ffffffff80204c4f <isr_common>

ffffffff80204503 <isr37>:
ffffffff80204503:	6a 25                	push   $0x25
ffffffff80204505:	e9 45 07 00 00       	jmp    ffffffff80204c4f <isr_common>

ffffffff8020450a <isr38>:
ffffffff8020450a:	6a 26                	push   $0x26
ffffffff8020450c:	e9 3e 07 00 00       	jmp    ffffffff80204c4f <isr_common>

ffffffff80204511 <isr39>:
ffffffff80204511:	6a 27                	push   $0x27
ffffffff80204513:	e9 37 07 00 00       	jmp    ffffffff80204c4f <isr_common>

ffffffff80204518 <isr40>:
ffffffff80204518:	6a 28                	push   $0x28
ffffffff8020451a:	e9 30 07 00 00       	jmp    ffffffff80204c4f <isr_common>

ffffffff8020451f <isr41>:
ffffffff8020451f:	6a 29                	push   $0x29
ffffffff80204521:	e9 29 07 00 00       	jmp    ffffffff80204c4f <isr_common>

ffffffff80204526 <isr42>:
ffffffff80204526:	6a 2a                	push   $0x2a
ffffffff80204528:	e9 22 07 00 00       	jmp    ffffffff80204c4f <isr_common>

ffffffff8020452d <isr43>:
ffffffff8020452d:	6a 2b                	push   $0x2b
ffffffff8020452f:	e9 1b 07 00 00       	jmp    ffffffff80204c4f <isr_common>

ffffffff80204534 <isr44>:
ffffffff80204534:	6a 2c                	push   $0x2c
ffffffff80204536:	e9 14 07 00 00       	jmp    ffffffff80204c4f <isr_common>

ffffffff8020453b <isr45>:
ffffffff8020453b:	6a 2d                	push   $0x2d
ffffffff8020453d:	e9 0d 07 00 00       	jmp    ffffffff80204c4f <isr_common>

ffffffff80204542 <isr46>:
ffffffff80204542:	6a 2e                	push   $0x2e
ffffffff80204544:	e9 06 07 00 00       	jmp    ffffffff80204c4f <isr_common>

ffffffff80204549 <isr47>:
ffffffff80204549:	6a 2f                	push   $0x2f
ffffffff8020454b:	e9 ff 06 00 00       	jmp    ffffffff80204c4f <isr_common>

ffffffff80204550 <isr48>:
ffffffff80204550:	6a 30                	push   $0x30
ffffffff80204552:	e9 f8 06 00 00       	jmp    ffffffff80204c4f <isr_common>

ffffffff80204557 <isr49>:
ffffffff80204557:	6a 31                	push   $0x31
ffffffff80204559:	e9 f1 06 00 00       	jmp    ffffffff80204c4f <isr_common>

ffffffff8020455e <isr50>:
ffffffff8020455e:	6a 32                	push   $0x32
ffffffff80204560:	e9 ea 06 00 00       	jmp    ffffffff80204c4f <isr_common>

ffffffff80204565 <isr51>:
ffffffff80204565:	6a 33                	push   $0x33
ffffffff80204567:	e9 e3 06 00 00       	jmp    ffffffff80204c4f <isr_common>

ffffffff8020456c <isr52>:
ffffffff8020456c:	6a 34                	push   $0x34
ffffffff8020456e:	e9 dc 06 00 00       	jmp    ffffffff80204c4f <isr_common>

ffffffff80204573 <isr53>:
ffffffff80204573:	6a 35                	push   $0x35
ffffffff80204575:	e9 d5 06 00 00       	jmp    ffffffff80204c4f <isr_common>

ffffffff8020457a <isr54>:
ffffffff8020457a:	6a 36                	push   $0x36
ffffffff8020457c:	e9 ce 06 00 00       	jmp    ffffffff80204c4f <isr_common>

ffffffff80204581 <isr55>:
ffffffff80204581:	6a 37                	push   $0x37
ffffffff80204583:	e9 c7 06 00 00       	jmp    ffffffff80204c4f <isr_common>

ffffffff80204588 <isr56>:
ffffffff80204588:	6a 38                	push   $0x38
ffffffff8020458a:	e9 c0 06 00 00       	jmp    ffffffff80204c4f <isr_common>

ffffffff8020458f <isr57>:
ffffffff8020458f:	6a 39                	push   $0x39
ffffffff80204591:	e9 b9 06 00 00       	jmp    ffffffff80204c4f <isr_common>

ffffffff80204596 <isr58>:
ffffffff80204596:	6a 3a                	push   $0x3a
ffffffff80204598:	e9 b2 06 00 00       	jmp    ffffffff80204c4f <isr_common>

ffffffff8020459d <isr59>:
ffffffff8020459d:	6a 3b                	push   $0x3b
ffffffff8020459f:	e9 ab 06 00 00       	jmp    ffffffff80204c4f <isr_common>

ffffffff802045a4 <isr60>:
ffffffff802045a4:	6a 3c                	push   $0x3c
ffffffff802045a6:	e9 a4 06 00 00       	jmp    ffffffff80204c4f <isr_common>

ffffffff802045ab <isr61>:
ffffffff802045ab:	6a 3d                	push   $0x3d
ffffffff802045ad:	e9 9d 06 00 00       	jmp    ffffffff80204c4f <isr_common>

ffffffff802045b2 <isr62>:
ffffffff802045b2:	6a 3e                	push   $0x3e
ffffffff802045b4:	e9 96 06 00 00       	jmp    ffffffff80204c4f <isr_common>

ffffffff802045b9 <isr63>:
ffffffff802045b9:	6a 3f                	push   $0x3f
ffffffff802045bb:	e9 8f 06 00 00       	jmp    ffffffff80204c4f <isr_common>

ffffffff802045c0 <isr64>:
ffffffff802045c0:	6a 40                	push   $0x40
ffffffff802045c2:	e9 88 06 00 00       	jmp    ffffffff80204c4f <isr_common>

ffffffff802045c7 <isr65>:
ffffffff802045c7:	6a 41                	push   $0x41
ffffffff802045c9:	e9 81 06 00 00       	jmp    ffffffff80204c4f <isr_common>

ffffffff802045ce <isr66>:
ffffffff802045ce:	6a 42                	push   $0x42
ffffffff802045d0:	e9 7a 06 00 00       	jmp    ffffffff80204c4f <isr_common>

ffffffff802045d5 <isr67>:
ffffffff802045d5:	6a 43                	push   $0x43
ffffffff802045d7:	e9 73 06 00 00       	jmp    ffffffff80204c4f <isr_common>

ffffffff802045dc <isr68>:
ffffffff802045dc:	6a 44                	push   $0x44
ffffffff802045de:	e9 6c 06 00 00       	jmp    ffffffff80204c4f <isr_common>

ffffffff802045e3 <isr69>:
ffffffff802045e3:	6a 45                	push   $0x45
ffffffff802045e5:	e9 65 06 00 00       	jmp    ffffffff80204c4f <isr_common>

ffffffff802045ea <isr70>:
ffffffff802045ea:	6a 46                	push   $0x46
ffffffff802045ec:	e9 5e 06 00 00       	jmp    ffffffff80204c4f <isr_common>

ffffffff802045f1 <isr71>:
ffffffff802045f1:	6a 47                	push   $0x47
ffffffff802045f3:	e9 57 06 00 00       	jmp    ffffffff80204c4f <isr_common>

ffffffff802045f8 <isr72>:
ffffffff802045f8:	6a 48                	push   $0x48
ffffffff802045fa:	e9 50 06 00 00       	jmp    ffffffff80204c4f <isr_common>

ffffffff802045ff <isr73>:
ffffffff802045ff:	6a 49                	push   $0x49
ffffffff80204601:	e9 49 06 00 00       	jmp    ffffffff80204c4f <isr_common>

ffffffff80204606 <isr74>:
ffffffff80204606:	6a 4a                	push   $0x4a
ffffffff80204608:	e9 42 06 00 00       	jmp    ffffffff80204c4f <isr_common>

ffffffff8020460d <isr75>:
ffffffff8020460d:	6a 4b                	push   $0x4b
ffffffff8020460f:	e9 3b 06 00 00       	jmp    ffffffff80204c4f <isr_common>

ffffffff80204614 <isr76>:
ffffffff80204614:	6a 4c                	push   $0x4c
ffffffff80204616:	e9 34 06 00 00       	jmp    ffffffff80204c4f <isr_common>

ffffffff8020461b <isr77>:
ffffffff8020461b:	6a 4d                	push   $0x4d
ffffffff8020461d:	e9 2d 06 00 00       	jmp    ffffffff80204c4f <isr_common>

ffffffff80204622 <isr78>:
ffffffff80204622:	6a 4e                	push   $0x4e
ffffffff80204624:	e9 26 06 00 00       	jmp    ffffffff80204c4f <isr_common>

ffffffff80204629 <isr79>:
ffffffff80204629:	6a 4f                	push   $0x4f
ffffffff8020462b:	e9 1f 06 00 00       	jmp    ffffffff80204c4f <isr_common>

ffffffff80204630 <isr80>:
ffffffff80204630:	6a 50                	push   $0x50
ffffffff80204632:	e9 18 06 00 00       	jmp    ffffffff80204c4f <isr_common>

ffffffff80204637 <isr81>:
ffffffff80204637:	6a 51                	push   $0x51
ffffffff80204639:	e9 11 06 00 00       	jmp    ffffffff80204c4f <isr_common>

ffffffff8020463e <isr82>:
ffffffff8020463e:	6a 52                	push   $0x52
ffffffff80204640:	e9 0a 06 00 00       	jmp    ffffffff80204c4f <isr_common>

ffffffff80204645 <isr83>:
ffffffff80204645:	6a 53                	push   $0x53
ffffffff80204647:	e9 03 06 00 00       	jmp    ffffffff80204c4f <isr_common>

ffffffff8020464c <isr84>:
ffffffff8020464c:	6a 54                	push   $0x54
ffffffff8020464e:	e9 fc 05 00 00       	jmp    ffffffff80204c4f <isr_common>

ffffffff80204653 <isr85>:
ffffffff80204653:	6a 55                	push   $0x55
ffffffff80204655:	e9 f5 05 00 00       	jmp    ffffffff80204c4f <isr_common>

ffffffff8020465a <isr86>:
ffffffff8020465a:	6a 56                	push   $0x56
ffffffff8020465c:	e9 ee 05 00 00       	jmp    ffffffff80204c4f <isr_common>

ffffffff80204661 <isr87>:
ffffffff80204661:	6a 57                	push   $0x57
ffffffff80204663:	e9 e7 05 00 00       	jmp    ffffffff80204c4f <isr_common>

ffffffff80204668 <isr88>:
ffffffff80204668:	6a 58                	push   $0x58
ffffffff8020466a:	e9 e0 05 00 00       	jmp    ffffffff80204c4f <isr_common>

ffffffff8020466f <isr89>:
ffffffff8020466f:	6a 59                	push   $0x59
ffffffff80204671:	e9 d9 05 00 00       	jmp    ffffffff80204c4f <isr_common>

ffffffff80204676 <isr90>:
ffffffff80204676:	6a 5a                	push   $0x5a
ffffffff80204678:	e9 d2 05 00 00       	jmp    ffffffff80204c4f <isr_common>

ffffffff8020467d <isr91>:
ffffffff8020467d:	6a 5b                	push   $0x5b
ffffffff8020467f:	e9 cb 05 00 00       	jmp    ffffffff80204c4f <isr_common>

ffffffff80204684 <isr92>:
ffffffff80204684:	6a 5c                	push   $0x5c
ffffffff80204686:	e9 c4 05 00 00       	jmp    ffffffff80204c4f <isr_common>

ffffffff8020468b <isr93>:
ffffffff8020468b:	6a 5d                	push   $0x5d
ffffffff8020468d:	e9 bd 05 00 00       	jmp    ffffffff80204c4f <isr_common>

ffffffff80204692 <isr94>:
ffffffff80204692:	6a 5e                	push   $0x5e
ffffffff80204694:	e9 b6 05 00 00       	jmp    ffffffff80204c4f <isr_common>

ffffffff80204699 <isr95>:
ffffffff80204699:	6a 5f                	push   $0x5f
ffffffff8020469b:	e9 af 05 00 00       	jmp    ffffffff80204c4f <isr_common>

ffffffff802046a0 <isr96>:
ffffffff802046a0:	6a 60                	push   $0x60
ffffffff802046a2:	e9 a8 05 00 00       	jmp    ffffffff80204c4f <isr_common>

ffffffff802046a7 <isr97>:
ffffffff802046a7:	6a 61                	push   $0x61
ffffffff802046a9:	e9 a1 05 00 00       	jmp    ffffffff80204c4f <isr_common>

ffffffff802046ae <isr98>:
ffffffff802046ae:	6a 62                	push   $0x62
ffffffff802046b0:	e9 9a 05 00 00       	jmp    ffffffff80204c4f <isr_common>

ffffffff802046b5 <isr99>:
ffffffff802046b5:	6a 63                	push   $0x63
ffffffff802046b7:	e9 93 05 00 00       	jmp    ffffffff80204c4f <isr_common>

ffffffff802046bc <isr100>:
ffffffff802046bc:	6a 64                	push   $0x64
ffffffff802046be:	e9 8c 05 00 00       	jmp    ffffffff80204c4f <isr_common>

ffffffff802046c3 <isr101>:
ffffffff802046c3:	6a 65                	push   $0x65
ffffffff802046c5:	e9 85 05 00 00       	jmp    ffffffff80204c4f <isr_common>

ffffffff802046ca <isr102>:
ffffffff802046ca:	6a 66                	push   $0x66
ffffffff802046cc:	e9 7e 05 00 00       	jmp    ffffffff80204c4f <isr_common>

ffffffff802046d1 <isr103>:
ffffffff802046d1:	6a 67                	push   $0x67
ffffffff802046d3:	e9 77 05 00 00       	jmp    ffffffff80204c4f <isr_common>

ffffffff802046d8 <isr104>:
ffffffff802046d8:	6a 68                	push   $0x68
ffffffff802046da:	e9 70 05 00 00       	jmp    ffffffff80204c4f <isr_common>

ffffffff802046df <isr105>:
ffffffff802046df:	6a 69                	push   $0x69
ffffffff802046e1:	e9 69 05 00 00       	jmp    ffffffff80204c4f <isr_common>

ffffffff802046e6 <isr106>:
ffffffff802046e6:	6a 6a                	push   $0x6a
ffffffff802046e8:	e9 62 05 00 00       	jmp    ffffffff80204c4f <isr_common>

ffffffff802046ed <isr107>:
ffffffff802046ed:	6a 6b                	push   $0x6b
ffffffff802046ef:	e9 5b 05 00 00       	jmp    ffffffff80204c4f <isr_common>

ffffffff802046f4 <isr108>:
ffffffff802046f4:	6a 6c                	push   $0x6c
ffffffff802046f6:	e9 54 05 00 00       	jmp    ffffffff80204c4f <isr_common>

ffffffff802046fb <isr109>:
ffffffff802046fb:	6a 6d                	push   $0x6d
ffffffff802046fd:	e9 4d 05 00 00       	jmp    ffffffff80204c4f <isr_common>

ffffffff80204702 <isr110>:
ffffffff80204702:	6a 6e                	push   $0x6e
ffffffff80204704:	e9 46 05 00 00       	jmp    ffffffff80204c4f <isr_common>

ffffffff80204709 <isr111>:
ffffffff80204709:	6a 6f                	push   $0x6f
ffffffff8020470b:	e9 3f 05 00 00       	jmp    ffffffff80204c4f <isr_common>

ffffffff80204710 <isr112>:
ffffffff80204710:	6a 70                	push   $0x70
ffffffff80204712:	e9 38 05 00 00       	jmp    ffffffff80204c4f <isr_common>

ffffffff80204717 <isr113>:
ffffffff80204717:	6a 71                	push   $0x71
ffffffff80204719:	e9 31 05 00 00       	jmp    ffffffff80204c4f <isr_common>

ffffffff8020471e <isr114>:
ffffffff8020471e:	6a 72                	push   $0x72
ffffffff80204720:	e9 2a 05 00 00       	jmp    ffffffff80204c4f <isr_common>

ffffffff80204725 <isr115>:
ffffffff80204725:	6a 73                	push   $0x73
ffffffff80204727:	e9 23 05 00 00       	jmp    ffffffff80204c4f <isr_common>

ffffffff8020472c <isr116>:
ffffffff8020472c:	6a 74                	push   $0x74
ffffffff8020472e:	e9 1c 05 00 00       	jmp    ffffffff80204c4f <isr_common>

ffffffff80204733 <isr117>:
ffffffff80204733:	6a 75                	push   $0x75
ffffffff80204735:	e9 15 05 00 00       	jmp    ffffffff80204c4f <isr_common>

ffffffff8020473a <isr118>:
ffffffff8020473a:	6a 76                	push   $0x76
ffffffff8020473c:	e9 0e 05 00 00       	jmp    ffffffff80204c4f <isr_common>

ffffffff80204741 <isr119>:
ffffffff80204741:	6a 77                	push   $0x77
ffffffff80204743:	e9 07 05 00 00       	jmp    ffffffff80204c4f <isr_common>

ffffffff80204748 <isr120>:
ffffffff80204748:	6a 78                	push   $0x78
ffffffff8020474a:	e9 00 05 00 00       	jmp    ffffffff80204c4f <isr_common>

ffffffff8020474f <isr121>:
ffffffff8020474f:	6a 79                	push   $0x79
ffffffff80204751:	e9 f9 04 00 00       	jmp    ffffffff80204c4f <isr_common>

ffffffff80204756 <isr122>:
ffffffff80204756:	6a 7a                	push   $0x7a
ffffffff80204758:	e9 f2 04 00 00       	jmp    ffffffff80204c4f <isr_common>

ffffffff8020475d <isr123>:
ffffffff8020475d:	6a 7b                	push   $0x7b
ffffffff8020475f:	e9 eb 04 00 00       	jmp    ffffffff80204c4f <isr_common>

ffffffff80204764 <isr124>:
ffffffff80204764:	6a 7c                	push   $0x7c
ffffffff80204766:	e9 e4 04 00 00       	jmp    ffffffff80204c4f <isr_common>

ffffffff8020476b <isr125>:
ffffffff8020476b:	6a 7d                	push   $0x7d
ffffffff8020476d:	e9 dd 04 00 00       	jmp    ffffffff80204c4f <isr_common>

ffffffff80204772 <isr126>:
ffffffff80204772:	6a 7e                	push   $0x7e
ffffffff80204774:	e9 d6 04 00 00       	jmp    ffffffff80204c4f <isr_common>

ffffffff80204779 <isr127>:
ffffffff80204779:	6a 7f                	push   $0x7f
ffffffff8020477b:	e9 cf 04 00 00       	jmp    ffffffff80204c4f <isr_common>

ffffffff80204780 <isr128>:
ffffffff80204780:	68 80 00 00 00       	push   $0x80
ffffffff80204785:	e9 c5 04 00 00       	jmp    ffffffff80204c4f <isr_common>

ffffffff8020478a <isr129>:
ffffffff8020478a:	68 81 00 00 00       	push   $0x81
ffffffff8020478f:	e9 bb 04 00 00       	jmp    ffffffff80204c4f <isr_common>

ffffffff80204794 <isr130>:
ffffffff80204794:	68 82 00 00 00       	push   $0x82
ffffffff80204799:	e9 b1 04 00 00       	jmp    ffffffff80204c4f <isr_common>

ffffffff8020479e <isr131>:
ffffffff8020479e:	68 83 00 00 00       	push   $0x83
ffffffff802047a3:	e9 a7 04 00 00       	jmp    ffffffff80204c4f <isr_common>

ffffffff802047a8 <isr132>:
ffffffff802047a8:	68 84 00 00 00       	push   $0x84
ffffffff802047ad:	e9 9d 04 00 00       	jmp    ffffffff80204c4f <isr_common>

ffffffff802047b2 <isr133>:
ffffffff802047b2:	68 85 00 00 00       	push   $0x85
ffffffff802047b7:	e9 93 04 00 00       	jmp    ffffffff80204c4f <isr_common>

ffffffff802047bc <isr134>:
ffffffff802047bc:	68 86 00 00 00       	push   $0x86
ffffffff802047c1:	e9 89 04 00 00       	jmp    ffffffff80204c4f <isr_common>

ffffffff802047c6 <isr135>:
ffffffff802047c6:	68 87 00 00 00       	push   $0x87
ffffffff802047cb:	e9 7f 04 00 00       	jmp    ffffffff80204c4f <isr_common>

ffffffff802047d0 <isr136>:
ffffffff802047d0:	68 88 00 00 00       	push   $0x88
ffffffff802047d5:	e9 75 04 00 00       	jmp    ffffffff80204c4f <isr_common>

ffffffff802047da <isr137>:
ffffffff802047da:	68 89 00 00 00       	push   $0x89
ffffffff802047df:	e9 6b 04 00 00       	jmp    ffffffff80204c4f <isr_common>

ffffffff802047e4 <isr138>:
ffffffff802047e4:	68 8a 00 00 00       	push   $0x8a
ffffffff802047e9:	e9 61 04 00 00       	jmp    ffffffff80204c4f <isr_common>

ffffffff802047ee <isr139>:
ffffffff802047ee:	68 8b 00 00 00       	push   $0x8b
ffffffff802047f3:	e9 57 04 00 00       	jmp    ffffffff80204c4f <isr_common>

ffffffff802047f8 <isr140>:
ffffffff802047f8:	68 8c 00 00 00       	push   $0x8c
ffffffff802047fd:	e9 4d 04 00 00       	jmp    ffffffff80204c4f <isr_common>

ffffffff80204802 <isr141>:
ffffffff80204802:	68 8d 00 00 00       	push   $0x8d
ffffffff80204807:	e9 43 04 00 00       	jmp    ffffffff80204c4f <isr_common>

ffffffff8020480c <isr142>:
ffffffff8020480c:	68 8e 00 00 00       	push   $0x8e
ffffffff80204811:	e9 39 04 00 00       	jmp    ffffffff80204c4f <isr_common>

ffffffff80204816 <isr143>:
ffffffff80204816:	68 8f 00 00 00       	push   $0x8f
ffffffff8020481b:	e9 2f 04 00 00       	jmp    ffffffff80204c4f <isr_common>

ffffffff80204820 <isr144>:
ffffffff80204820:	68 90 00 00 00       	push   $0x90
ffffffff80204825:	e9 25 04 00 00       	jmp    ffffffff80204c4f <isr_common>

ffffffff8020482a <isr145>:
ffffffff8020482a:	68 91 00 00 00       	push   $0x91
ffffffff8020482f:	e9 1b 04 00 00       	jmp    ffffffff80204c4f <isr_common>

ffffffff80204834 <isr146>:
ffffffff80204834:	68 92 00 00 00       	push   $0x92
ffffffff80204839:	e9 11 04 00 00       	jmp    ffffffff80204c4f <isr_common>

ffffffff8020483e <isr147>:
ffffffff8020483e:	68 93 00 00 00       	push   $0x93
ffffffff80204843:	e9 07 04 00 00       	jmp    ffffffff80204c4f <isr_common>

ffffffff80204848 <isr148>:
ffffffff80204848:	68 94 00 00 00       	push   $0x94
ffffffff8020484d:	e9 fd 03 00 00       	jmp    ffffffff80204c4f <isr_common>

ffffffff80204852 <isr149>:
ffffffff80204852:	68 95 00 00 00       	push   $0x95
ffffffff80204857:	e9 f3 03 00 00       	jmp    ffffffff80204c4f <isr_common>

ffffffff8020485c <isr150>:
ffffffff8020485c:	68 96 00 00 00       	push   $0x96
ffffffff80204861:	e9 e9 03 00 00       	jmp    ffffffff80204c4f <isr_common>

ffffffff80204866 <isr151>:
ffffffff80204866:	68 97 00 00 00       	push   $0x97
ffffffff8020486b:	e9 df 03 00 00       	jmp    ffffffff80204c4f <isr_common>

ffffffff80204870 <isr152>:
ffffffff80204870:	68 98 00 00 00       	push   $0x98
ffffffff80204875:	e9 d5 03 00 00       	jmp    ffffffff80204c4f <isr_common>

ffffffff8020487a <isr153>:
ffffffff8020487a:	68 99 00 00 00       	push   $0x99
ffffffff8020487f:	e9 cb 03 00 00       	jmp    ffffffff80204c4f <isr_common>

ffffffff80204884 <isr154>:
ffffffff80204884:	68 9a 00 00 00       	push   $0x9a
ffffffff80204889:	e9 c1 03 00 00       	jmp    ffffffff80204c4f <isr_common>

ffffffff8020488e <isr155>:
ffffffff8020488e:	68 9b 00 00 00       	push   $0x9b
ffffffff80204893:	e9 b7 03 00 00       	jmp    ffffffff80204c4f <isr_common>

ffffffff80204898 <isr156>:
ffffffff80204898:	68 9c 00 00 00       	push   $0x9c
ffffffff8020489d:	e9 ad 03 00 00       	jmp    ffffffff80204c4f <isr_common>

ffffffff802048a2 <isr157>:
ffffffff802048a2:	68 9d 00 00 00       	push   $0x9d
ffffffff802048a7:	e9 a3 03 00 00       	jmp    ffffffff80204c4f <isr_common>

ffffffff802048ac <isr158>:
ffffffff802048ac:	68 9e 00 00 00       	push   $0x9e
ffffffff802048b1:	e9 99 03 00 00       	jmp    ffffffff80204c4f <isr_common>

ffffffff802048b6 <isr159>:
ffffffff802048b6:	68 9f 00 00 00       	push   $0x9f
ffffffff802048bb:	e9 8f 03 00 00       	jmp    ffffffff80204c4f <isr_common>

ffffffff802048c0 <isr160>:
ffffffff802048c0:	68 a0 00 00 00       	push   $0xa0
ffffffff802048c5:	e9 85 03 00 00       	jmp    ffffffff80204c4f <isr_common>

ffffffff802048ca <isr161>:
ffffffff802048ca:	68 a1 00 00 00       	push   $0xa1
ffffffff802048cf:	e9 7b 03 00 00       	jmp    ffffffff80204c4f <isr_common>

ffffffff802048d4 <isr162>:
ffffffff802048d4:	68 a2 00 00 00       	push   $0xa2
ffffffff802048d9:	e9 71 03 00 00       	jmp    ffffffff80204c4f <isr_common>

ffffffff802048de <isr163>:
ffffffff802048de:	68 a3 00 00 00       	push   $0xa3
ffffffff802048e3:	e9 67 03 00 00       	jmp    ffffffff80204c4f <isr_common>

ffffffff802048e8 <isr164>:
ffffffff802048e8:	68 a4 00 00 00       	push   $0xa4
ffffffff802048ed:	e9 5d 03 00 00       	jmp    ffffffff80204c4f <isr_common>

ffffffff802048f2 <isr165>:
ffffffff802048f2:	68 a5 00 00 00       	push   $0xa5
ffffffff802048f7:	e9 53 03 00 00       	jmp    ffffffff80204c4f <isr_common>

ffffffff802048fc <isr166>:
ffffffff802048fc:	68 a6 00 00 00       	push   $0xa6
ffffffff80204901:	e9 49 03 00 00       	jmp    ffffffff80204c4f <isr_common>

ffffffff80204906 <isr167>:
ffffffff80204906:	68 a7 00 00 00       	push   $0xa7
ffffffff8020490b:	e9 3f 03 00 00       	jmp    ffffffff80204c4f <isr_common>

ffffffff80204910 <isr168>:
ffffffff80204910:	68 a8 00 00 00       	push   $0xa8
ffffffff80204915:	e9 35 03 00 00       	jmp    ffffffff80204c4f <isr_common>

ffffffff8020491a <isr169>:
ffffffff8020491a:	68 a9 00 00 00       	push   $0xa9
ffffffff8020491f:	e9 2b 03 00 00       	jmp    ffffffff80204c4f <isr_common>

ffffffff80204924 <isr170>:
ffffffff80204924:	68 aa 00 00 00       	push   $0xaa
ffffffff80204929:	e9 21 03 00 00       	jmp    ffffffff80204c4f <isr_common>

ffffffff8020492e <isr171>:
ffffffff8020492e:	68 ab 00 00 00       	push   $0xab
ffffffff80204933:	e9 17 03 00 00       	jmp    ffffffff80204c4f <isr_common>

ffffffff80204938 <isr172>:
ffffffff80204938:	68 ac 00 00 00       	push   $0xac
ffffffff8020493d:	e9 0d 03 00 00       	jmp    ffffffff80204c4f <isr_common>

ffffffff80204942 <isr173>:
ffffffff80204942:	68 ad 00 00 00       	push   $0xad
ffffffff80204947:	e9 03 03 00 00       	jmp    ffffffff80204c4f <isr_common>

ffffffff8020494c <isr174>:
ffffffff8020494c:	68 ae 00 00 00       	push   $0xae
ffffffff80204951:	e9 f9 02 00 00       	jmp    ffffffff80204c4f <isr_common>

ffffffff80204956 <isr175>:
ffffffff80204956:	68 af 00 00 00       	push   $0xaf
ffffffff8020495b:	e9 ef 02 00 00       	jmp    ffffffff80204c4f <isr_common>

ffffffff80204960 <isr176>:
ffffffff80204960:	68 b0 00 00 00       	push   $0xb0
ffffffff80204965:	e9 e5 02 00 00       	jmp    ffffffff80204c4f <isr_common>

ffffffff8020496a <isr177>:
ffffffff8020496a:	68 b1 00 00 00       	push   $0xb1
ffffffff8020496f:	e9 db 02 00 00       	jmp    ffffffff80204c4f <isr_common>

ffffffff80204974 <isr178>:
ffffffff80204974:	68 b2 00 00 00       	push   $0xb2
ffffffff80204979:	e9 d1 02 00 00       	jmp    ffffffff80204c4f <isr_common>

ffffffff8020497e <isr179>:
ffffffff8020497e:	68 b3 00 00 00       	push   $0xb3
ffffffff80204983:	e9 c7 02 00 00       	jmp    ffffffff80204c4f <isr_common>

ffffffff80204988 <isr180>:
ffffffff80204988:	68 b4 00 00 00       	push   $0xb4
ffffffff8020498d:	e9 bd 02 00 00       	jmp    ffffffff80204c4f <isr_common>

ffffffff80204992 <isr181>:
ffffffff80204992:	68 b5 00 00 00       	push   $0xb5
ffffffff80204997:	e9 b3 02 00 00       	jmp    ffffffff80204c4f <isr_common>

ffffffff8020499c <isr182>:
ffffffff8020499c:	68 b6 00 00 00       	push   $0xb6
ffffffff802049a1:	e9 a9 02 00 00       	jmp    ffffffff80204c4f <isr_common>

ffffffff802049a6 <isr183>:
ffffffff802049a6:	68 b7 00 00 00       	push   $0xb7
ffffffff802049ab:	e9 9f 02 00 00       	jmp    ffffffff80204c4f <isr_common>

ffffffff802049b0 <isr184>:
ffffffff802049b0:	68 b8 00 00 00       	push   $0xb8
ffffffff802049b5:	e9 95 02 00 00       	jmp    ffffffff80204c4f <isr_common>

ffffffff802049ba <isr185>:
ffffffff802049ba:	68 b9 00 00 00       	push   $0xb9
ffffffff802049bf:	e9 8b 02 00 00       	jmp    ffffffff80204c4f <isr_common>

ffffffff802049c4 <isr186>:
ffffffff802049c4:	68 ba 00 00 00       	push   $0xba
ffffffff802049c9:	e9 81 02 00 00       	jmp    ffffffff80204c4f <isr_common>

ffffffff802049ce <isr187>:
ffffffff802049ce:	68 bb 00 00 00       	push   $0xbb
ffffffff802049d3:	e9 77 02 00 00       	jmp    ffffffff80204c4f <isr_common>

ffffffff802049d8 <isr188>:
ffffffff802049d8:	68 bc 00 00 00       	push   $0xbc
ffffffff802049dd:	e9 6d 02 00 00       	jmp    ffffffff80204c4f <isr_common>

ffffffff802049e2 <isr189>:
ffffffff802049e2:	68 bd 00 00 00       	push   $0xbd
ffffffff802049e7:	e9 63 02 00 00       	jmp    ffffffff80204c4f <isr_common>

ffffffff802049ec <isr190>:
ffffffff802049ec:	68 be 00 00 00       	push   $0xbe
ffffffff802049f1:	e9 59 02 00 00       	jmp    ffffffff80204c4f <isr_common>

ffffffff802049f6 <isr191>:
ffffffff802049f6:	68 bf 00 00 00       	push   $0xbf
ffffffff802049fb:	e9 4f 02 00 00       	jmp    ffffffff80204c4f <isr_common>

ffffffff80204a00 <isr192>:
ffffffff80204a00:	68 c0 00 00 00       	push   $0xc0
ffffffff80204a05:	e9 45 02 00 00       	jmp    ffffffff80204c4f <isr_common>

ffffffff80204a0a <isr193>:
ffffffff80204a0a:	68 c1 00 00 00       	push   $0xc1
ffffffff80204a0f:	e9 3b 02 00 00       	jmp    ffffffff80204c4f <isr_common>

ffffffff80204a14 <isr194>:
ffffffff80204a14:	68 c2 00 00 00       	push   $0xc2
ffffffff80204a19:	e9 31 02 00 00       	jmp    ffffffff80204c4f <isr_common>

ffffffff80204a1e <isr195>:
ffffffff80204a1e:	68 c3 00 00 00       	push   $0xc3
ffffffff80204a23:	e9 27 02 00 00       	jmp    ffffffff80204c4f <isr_common>

ffffffff80204a28 <isr196>:
ffffffff80204a28:	68 c4 00 00 00       	push   $0xc4
ffffffff80204a2d:	e9 1d 02 00 00       	jmp    ffffffff80204c4f <isr_common>

ffffffff80204a32 <isr197>:
ffffffff80204a32:	68 c5 00 00 00       	push   $0xc5
ffffffff80204a37:	e9 13 02 00 00       	jmp    ffffffff80204c4f <isr_common>

ffffffff80204a3c <isr198>:
ffffffff80204a3c:	68 c6 00 00 00       	push   $0xc6
ffffffff80204a41:	e9 09 02 00 00       	jmp    ffffffff80204c4f <isr_common>

ffffffff80204a46 <isr199>:
ffffffff80204a46:	68 c7 00 00 00       	push   $0xc7
ffffffff80204a4b:	e9 ff 01 00 00       	jmp    ffffffff80204c4f <isr_common>

ffffffff80204a50 <isr200>:
ffffffff80204a50:	68 c8 00 00 00       	push   $0xc8
ffffffff80204a55:	e9 f5 01 00 00       	jmp    ffffffff80204c4f <isr_common>

ffffffff80204a5a <isr201>:
ffffffff80204a5a:	68 c9 00 00 00       	push   $0xc9
ffffffff80204a5f:	e9 eb 01 00 00       	jmp    ffffffff80204c4f <isr_common>

ffffffff80204a64 <isr202>:
ffffffff80204a64:	68 ca 00 00 00       	push   $0xca
ffffffff80204a69:	e9 e1 01 00 00       	jmp    ffffffff80204c4f <isr_common>

ffffffff80204a6e <isr203>:
ffffffff80204a6e:	68 cb 00 00 00       	push   $0xcb
ffffffff80204a73:	e9 d7 01 00 00       	jmp    ffffffff80204c4f <isr_common>

ffffffff80204a78 <isr204>:
ffffffff80204a78:	68 cc 00 00 00       	push   $0xcc
ffffffff80204a7d:	e9 cd 01 00 00       	jmp    ffffffff80204c4f <isr_common>

ffffffff80204a82 <isr205>:
ffffffff80204a82:	68 cd 00 00 00       	push   $0xcd
ffffffff80204a87:	e9 c3 01 00 00       	jmp    ffffffff80204c4f <isr_common>

ffffffff80204a8c <isr206>:
ffffffff80204a8c:	68 ce 00 00 00       	push   $0xce
ffffffff80204a91:	e9 b9 01 00 00       	jmp    ffffffff80204c4f <isr_common>

ffffffff80204a96 <isr207>:
ffffffff80204a96:	68 cf 00 00 00       	push   $0xcf
ffffffff80204a9b:	e9 af 01 00 00       	jmp    ffffffff80204c4f <isr_common>

ffffffff80204aa0 <isr208>:
ffffffff80204aa0:	68 d0 00 00 00       	push   $0xd0
ffffffff80204aa5:	e9 a5 01 00 00       	jmp    ffffffff80204c4f <isr_common>

ffffffff80204aaa <isr209>:
ffffffff80204aaa:	68 d1 00 00 00       	push   $0xd1
ffffffff80204aaf:	e9 9b 01 00 00       	jmp    ffffffff80204c4f <isr_common>

ffffffff80204ab4 <isr210>:
ffffffff80204ab4:	68 d2 00 00 00       	push   $0xd2
ffffffff80204ab9:	e9 91 01 00 00       	jmp    ffffffff80204c4f <isr_common>

ffffffff80204abe <isr211>:
ffffffff80204abe:	68 d3 00 00 00       	push   $0xd3
ffffffff80204ac3:	e9 87 01 00 00       	jmp    ffffffff80204c4f <isr_common>

ffffffff80204ac8 <isr212>:
ffffffff80204ac8:	68 d4 00 00 00       	push   $0xd4
ffffffff80204acd:	e9 7d 01 00 00       	jmp    ffffffff80204c4f <isr_common>

ffffffff80204ad2 <isr213>:
ffffffff80204ad2:	68 d5 00 00 00       	push   $0xd5
ffffffff80204ad7:	e9 73 01 00 00       	jmp    ffffffff80204c4f <isr_common>

ffffffff80204adc <isr214>:
ffffffff80204adc:	68 d6 00 00 00       	push   $0xd6
ffffffff80204ae1:	e9 69 01 00 00       	jmp    ffffffff80204c4f <isr_common>

ffffffff80204ae6 <isr215>:
ffffffff80204ae6:	68 d7 00 00 00       	push   $0xd7
ffffffff80204aeb:	e9 5f 01 00 00       	jmp    ffffffff80204c4f <isr_common>

ffffffff80204af0 <isr216>:
ffffffff80204af0:	68 d8 00 00 00       	push   $0xd8
ffffffff80204af5:	e9 55 01 00 00       	jmp    ffffffff80204c4f <isr_common>

ffffffff80204afa <isr217>:
ffffffff80204afa:	68 d9 00 00 00       	push   $0xd9
ffffffff80204aff:	e9 4b 01 00 00       	jmp    ffffffff80204c4f <isr_common>

ffffffff80204b04 <isr218>:
ffffffff80204b04:	68 da 00 00 00       	push   $0xda
ffffffff80204b09:	e9 41 01 00 00       	jmp    ffffffff80204c4f <isr_common>

ffffffff80204b0e <isr219>:
ffffffff80204b0e:	68 db 00 00 00       	push   $0xdb
ffffffff80204b13:	e9 37 01 00 00       	jmp    ffffffff80204c4f <isr_common>

ffffffff80204b18 <isr220>:
ffffffff80204b18:	68 dc 00 00 00       	push   $0xdc
ffffffff80204b1d:	e9 2d 01 00 00       	jmp    ffffffff80204c4f <isr_common>

ffffffff80204b22 <isr221>:
ffffffff80204b22:	68 dd 00 00 00       	push   $0xdd
ffffffff80204b27:	e9 23 01 00 00       	jmp    ffffffff80204c4f <isr_common>

ffffffff80204b2c <isr222>:
ffffffff80204b2c:	68 de 00 00 00       	push   $0xde
ffffffff80204b31:	e9 19 01 00 00       	jmp    ffffffff80204c4f <isr_common>

ffffffff80204b36 <isr223>:
ffffffff80204b36:	68 df 00 00 00       	push   $0xdf
ffffffff80204b3b:	e9 0f 01 00 00       	jmp    ffffffff80204c4f <isr_common>

ffffffff80204b40 <isr224>:
ffffffff80204b40:	68 e0 00 00 00       	push   $0xe0
ffffffff80204b45:	e9 05 01 00 00       	jmp    ffffffff80204c4f <isr_common>

ffffffff80204b4a <isr225>:
ffffffff80204b4a:	68 e1 00 00 00       	push   $0xe1
ffffffff80204b4f:	e9 fb 00 00 00       	jmp    ffffffff80204c4f <isr_common>

ffffffff80204b54 <isr226>:
ffffffff80204b54:	68 e2 00 00 00       	push   $0xe2
ffffffff80204b59:	e9 f1 00 00 00       	jmp    ffffffff80204c4f <isr_common>

ffffffff80204b5e <isr227>:
ffffffff80204b5e:	68 e3 00 00 00       	push   $0xe3
ffffffff80204b63:	e9 e7 00 00 00       	jmp    ffffffff80204c4f <isr_common>

ffffffff80204b68 <isr228>:
ffffffff80204b68:	68 e4 00 00 00       	push   $0xe4
ffffffff80204b6d:	e9 dd 00 00 00       	jmp    ffffffff80204c4f <isr_common>

ffffffff80204b72 <isr229>:
ffffffff80204b72:	68 e5 00 00 00       	push   $0xe5
ffffffff80204b77:	e9 d3 00 00 00       	jmp    ffffffff80204c4f <isr_common>

ffffffff80204b7c <isr230>:
ffffffff80204b7c:	68 e6 00 00 00       	push   $0xe6
ffffffff80204b81:	e9 c9 00 00 00       	jmp    ffffffff80204c4f <isr_common>

ffffffff80204b86 <isr231>:
ffffffff80204b86:	68 e7 00 00 00       	push   $0xe7
ffffffff80204b8b:	e9 bf 00 00 00       	jmp    ffffffff80204c4f <isr_common>

ffffffff80204b90 <isr232>:
ffffffff80204b90:	68 e8 00 00 00       	push   $0xe8
ffffffff80204b95:	e9 b5 00 00 00       	jmp    ffffffff80204c4f <isr_common>

ffffffff80204b9a <isr233>:
ffffffff80204b9a:	68 e9 00 00 00       	push   $0xe9
ffffffff80204b9f:	e9 ab 00 00 00       	jmp    ffffffff80204c4f <isr_common>

ffffffff80204ba4 <isr234>:
ffffffff80204ba4:	68 ea 00 00 00       	push   $0xea
ffffffff80204ba9:	e9 a1 00 00 00       	jmp    ffffffff80204c4f <isr_common>

ffffffff80204bae <isr235>:
ffffffff80204bae:	68 eb 00 00 00       	push   $0xeb
ffffffff80204bb3:	e9 97 00 00 00       	jmp    ffffffff80204c4f <isr_common>

ffffffff80204bb8 <isr236>:
ffffffff80204bb8:	68 ec 00 00 00       	push   $0xec
ffffffff80204bbd:	e9 8d 00 00 00       	jmp    ffffffff80204c4f <isr_common>

ffffffff80204bc2 <isr237>:
ffffffff80204bc2:	68 ed 00 00 00       	push   $0xed
ffffffff80204bc7:	e9 83 00 00 00       	jmp    ffffffff80204c4f <isr_common>

ffffffff80204bcc <isr238>:
ffffffff80204bcc:	68 ee 00 00 00       	push   $0xee
ffffffff80204bd1:	eb 7c                	jmp    ffffffff80204c4f <isr_common>

ffffffff80204bd3 <isr239>:
ffffffff80204bd3:	68 ef 00 00 00       	push   $0xef
ffffffff80204bd8:	eb 75                	jmp    ffffffff80204c4f <isr_common>

ffffffff80204bda <isr240>:
ffffffff80204bda:	68 f0 00 00 00       	push   $0xf0
ffffffff80204bdf:	eb 6e                	jmp    ffffffff80204c4f <isr_common>

ffffffff80204be1 <isr241>:
ffffffff80204be1:	68 f1 00 00 00       	push   $0xf1
ffffffff80204be6:	eb 67                	jmp    ffffffff80204c4f <isr_common>

ffffffff80204be8 <isr242>:
ffffffff80204be8:	68 f2 00 00 00       	push   $0xf2
ffffffff80204bed:	eb 60                	jmp    ffffffff80204c4f <isr_common>

ffffffff80204bef <isr243>:
ffffffff80204bef:	68 f3 00 00 00       	push   $0xf3
ffffffff80204bf4:	eb 59                	jmp    ffffffff80204c4f <isr_common>

ffffffff80204bf6 <isr244>:
ffffffff80204bf6:	68 f4 00 00 00       	push   $0xf4
ffffffff80204bfb:	eb 52                	jmp    ffffffff80204c4f <isr_common>

ffffffff80204bfd <isr245>:
ffffffff80204bfd:	68 f5 00 00 00       	push   $0xf5
ffffffff80204c02:	eb 4b                	jmp    ffffffff80204c4f <isr_common>

ffffffff80204c04 <isr246>:
ffffffff80204c04:	68 f6 00 00 00       	push   $0xf6
ffffffff80204c09:	eb 44                	jmp    ffffffff80204c4f <isr_common>

ffffffff80204c0b <isr247>:
ffffffff80204c0b:	68 f7 00 00 00       	push   $0xf7
ffffffff80204c10:	eb 3d                	jmp    ffffffff80204c4f <isr_common>

ffffffff80204c12 <isr248>:
ffffffff80204c12:	68 f8 00 00 00       	push   $0xf8
ffffffff80204c17:	eb 36                	jmp    ffffffff80204c4f <isr_common>

ffffffff80204c19 <isr249>:
ffffffff80204c19:	68 f9 00 00 00       	push   $0xf9
ffffffff80204c1e:	eb 2f                	jmp    ffffffff80204c4f <isr_common>

ffffffff80204c20 <isr250>:
ffffffff80204c20:	68 fa 00 00 00       	push   $0xfa
ffffffff80204c25:	eb 28                	jmp    ffffffff80204c4f <isr_common>

ffffffff80204c27 <isr251>:
ffffffff80204c27:	6a 00                	push   $0x0
ffffffff80204c29:	c7 44 24 04 fb 00 00 	movl   $0xfb,0x4(%rsp)
ffffffff80204c30:	00 
ffffffff80204c31:	eb 1c                	jmp    ffffffff80204c4f <isr_common>

ffffffff80204c33 <isr252>:
ffffffff80204c33:	68 fc 00 00 00       	push   $0xfc
ffffffff80204c38:	eb 15                	jmp    ffffffff80204c4f <isr_common>

ffffffff80204c3a <isr253>:
ffffffff80204c3a:	68 fd 00 00 00       	push   $0xfd
ffffffff80204c3f:	eb 0e                	jmp    ffffffff80204c4f <isr_common>

ffffffff80204c41 <isr254>:
ffffffff80204c41:	68 fe 00 00 00       	push   $0xfe
ffffffff80204c46:	eb 07                	jmp    ffffffff80204c4f <isr_common>

ffffffff80204c48 <isr255>:
ffffffff80204c48:	68 ff 00 00 00       	push   $0xff
ffffffff80204c4d:	eb 00                	jmp    ffffffff80204c4f <isr_common>

ffffffff80204c4f <isr_common>:
ffffffff80204c4f:	57                   	push   %rdi
ffffffff80204c50:	56                   	push   %rsi
ffffffff80204c51:	52                   	push   %rdx
ffffffff80204c52:	51                   	push   %rcx
ffffffff80204c53:	50                   	push   %rax
ffffffff80204c54:	41 50                	push   %r8
ffffffff80204c56:	41 51                	push   %r9
ffffffff80204c58:	41 52                	push   %r10
ffffffff80204c5a:	41 53                	push   %r11
ffffffff80204c5c:	48 89 e7             	mov    %rsp,%rdi
ffffffff80204c5f:	e8 13 f4 ff ff       	call   ffffffff80204077 <InterruptHandler>

ffffffff80204c64 <isr_done>:
ffffffff80204c64:	41 5b                	pop    %r11
ffffffff80204c66:	41 5a                	pop    %r10
ffffffff80204c68:	41 59                	pop    %r9
ffffffff80204c6a:	41 58                	pop    %r8
ffffffff80204c6c:	58                   	pop    %rax
ffffffff80204c6d:	59                   	pop    %rcx
ffffffff80204c6e:	5a                   	pop    %rdx
ffffffff80204c6f:	5e                   	pop    %rsi
ffffffff80204c70:	5f                   	pop    %rdi
ffffffff80204c71:	48 83 c4 08          	add    $0x8,%rsp
ffffffff80204c75:	48 cf                	iretq  

ffffffff80204c77 <_Z7get_tagP15stivale2_structm>:
ffffffff80204c77:	f3 0f 1e fa          	endbr64 
ffffffff80204c7b:	55                   	push   %rbp
ffffffff80204c7c:	48 89 e5             	mov    %rsp,%rbp
ffffffff80204c7f:	48 83 ec 20          	sub    $0x20,%rsp
ffffffff80204c83:	48 89 7d e8          	mov    %rdi,-0x18(%rbp)
ffffffff80204c87:	48 89 75 e0          	mov    %rsi,-0x20(%rbp)
ffffffff80204c8b:	48 8b 45 e8          	mov    -0x18(%rbp),%rax
ffffffff80204c8f:	48 8b 80 80 00 00 00 	mov    0x80(%rax),%rax
ffffffff80204c96:	48 89 45 f8          	mov    %rax,-0x8(%rbp)
ffffffff80204c9a:	48 83 7d f8 00       	cmpq   $0x0,-0x8(%rbp)
ffffffff80204c9f:	75 07                	jne    ffffffff80204ca8 <_Z7get_tagP15stivale2_structm+0x31>
ffffffff80204ca1:	b8 00 00 00 00       	mov    $0x0,%eax
ffffffff80204ca6:	eb 21                	jmp    ffffffff80204cc9 <_Z7get_tagP15stivale2_structm+0x52>
ffffffff80204ca8:	48 8b 45 f8          	mov    -0x8(%rbp),%rax
ffffffff80204cac:	48 8b 00             	mov    (%rax),%rax
ffffffff80204caf:	48 39 45 e0          	cmp    %rax,-0x20(%rbp)
ffffffff80204cb3:	75 06                	jne    ffffffff80204cbb <_Z7get_tagP15stivale2_structm+0x44>
ffffffff80204cb5:	48 8b 45 f8          	mov    -0x8(%rbp),%rax
ffffffff80204cb9:	eb 0e                	jmp    ffffffff80204cc9 <_Z7get_tagP15stivale2_structm+0x52>
ffffffff80204cbb:	48 8b 45 f8          	mov    -0x8(%rbp),%rax
ffffffff80204cbf:	48 8b 40 08          	mov    0x8(%rax),%rax
ffffffff80204cc3:	48 89 45 f8          	mov    %rax,-0x8(%rbp)
ffffffff80204cc7:	eb d1                	jmp    ffffffff80204c9a <_Z7get_tagP15stivale2_structm+0x23>
ffffffff80204cc9:	c9                   	leave  
ffffffff80204cca:	c3                   	ret    

ffffffff80204ccb <_Z7ThreadAv>:
ffffffff80204ccb:	f3 0f 1e fa          	endbr64 
ffffffff80204ccf:	55                   	push   %rbp
ffffffff80204cd0:	48 89 e5             	mov    %rsp,%rbp
ffffffff80204cd3:	48 c7 c7 38 11 20 80 	mov    $0xffffffff80201138,%rdi
ffffffff80204cda:	b8 00 00 00 00       	mov    $0x0,%eax
ffffffff80204cdf:	e8 c6 17 00 00       	call   ffffffff802064aa <_ZN3VGA12print_formatEPKcz>
ffffffff80204ce4:	eb ed                	jmp    ffffffff80204cd3 <_Z7ThreadAv+0x8>

ffffffff80204ce6 <_Z7ThreadBv>:
ffffffff80204ce6:	f3 0f 1e fa          	endbr64 
ffffffff80204cea:	55                   	push   %rbp
ffffffff80204ceb:	48 89 e5             	mov    %rsp,%rbp
ffffffff80204cee:	48 c7 c7 40 11 20 80 	mov    $0xffffffff80201140,%rdi
ffffffff80204cf5:	b8 00 00 00 00       	mov    $0x0,%eax
ffffffff80204cfa:	e8 ab 17 00 00       	call   ffffffff802064aa <_ZN3VGA12print_formatEPKcz>
ffffffff80204cff:	eb ed                	jmp    ffffffff80204cee <_Z7ThreadBv+0x8>

ffffffff80204d01 <kmain>:
ffffffff80204d01:	f3 0f 1e fa          	endbr64 
ffffffff80204d05:	55                   	push   %rbp
ffffffff80204d06:	48 89 e5             	mov    %rsp,%rbp
ffffffff80204d09:	53                   	push   %rbx
ffffffff80204d0a:	48 83 ec 28          	sub    $0x28,%rsp
ffffffff80204d0e:	48 89 7d d8          	mov    %rdi,-0x28(%rbp)
ffffffff80204d12:	e8 22 0f 00 00       	call   ffffffff80205c39 <_ZN3VGA4InitEv>
ffffffff80204d17:	48 c7 c7 48 11 20 80 	mov    $0xffffffff80201148,%rdi
ffffffff80204d1e:	b8 00 00 00 00       	mov    $0x0,%eax
ffffffff80204d23:	e8 82 17 00 00       	call   ffffffff802064aa <_ZN3VGA12print_formatEPKcz>
ffffffff80204d28:	e8 9b ec ff ff       	call   ffffffff802039c8 <_ZN3GDT4InitEv>
ffffffff80204d2d:	48 c7 c7 81 11 20 80 	mov    $0xffffffff80201181,%rdi
ffffffff80204d34:	b8 00 00 00 00       	mov    $0x0,%eax
ffffffff80204d39:	e8 6c 17 00 00       	call   ffffffff802064aa <_ZN3VGA12print_formatEPKcz>
ffffffff80204d3e:	e8 96 f3 ff ff       	call   ffffffff802040d9 <_ZN3IDT4InitEv>
ffffffff80204d43:	48 c7 c7 9e 11 20 80 	mov    $0xffffffff8020119e,%rdi
ffffffff80204d4a:	b8 00 00 00 00       	mov    $0x0,%eax
ffffffff80204d4f:	e8 56 17 00 00       	call   ffffffff802064aa <_ZN3VGA12print_formatEPKcz>
ffffffff80204d54:	e8 77 01 00 00       	call   ffffffff80204ed0 <_ZN3PIC9RemapIRQsEv>
ffffffff80204d59:	48 c7 c7 bb 11 20 80 	mov    $0xffffffff802011bb,%rdi
ffffffff80204d60:	b8 00 00 00 00       	mov    $0x0,%eax
ffffffff80204d65:	e8 40 17 00 00       	call   ffffffff802064aa <_ZN3VGA12print_formatEPKcz>
ffffffff80204d6a:	48 8b 45 d8          	mov    -0x28(%rbp),%rax
ffffffff80204d6e:	48 89 c7             	mov    %rax,%rdi
ffffffff80204d71:	e8 d2 e5 ff ff       	call   ffffffff80203348 <_ZN4ACPI10FindTablesEP15stivale2_struct>
ffffffff80204d76:	48 c7 c7 d7 11 20 80 	mov    $0xffffffff802011d7,%rdi
ffffffff80204d7d:	b8 00 00 00 00       	mov    $0x0,%eax
ffffffff80204d82:	e8 23 17 00 00       	call   ffffffff802064aa <_ZN3VGA12print_formatEPKcz>
ffffffff80204d87:	48 8b 45 d8          	mov    -0x28(%rbp),%rax
ffffffff80204d8b:	48 ba 07 de 12 86 9e 	movabs $0x2187f79e8612de07,%rdx
ffffffff80204d92:	f7 87 21 
ffffffff80204d95:	48 89 d6             	mov    %rdx,%rsi
ffffffff80204d98:	48 89 c7             	mov    %rax,%rdi
ffffffff80204d9b:	e8 d7 fe ff ff       	call   ffffffff80204c77 <_Z7get_tagP15stivale2_structm>
ffffffff80204da0:	48 89 c7             	mov    %rax,%rdi
ffffffff80204da3:	e8 8d 05 00 00       	call   ffffffff80205335 <_ZN14PhysicalMemory10InitializeEP26stivale2_struct_tag_memmap>
ffffffff80204da8:	48 c7 c7 f5 11 20 80 	mov    $0xffffffff802011f5,%rdi
ffffffff80204daf:	b8 00 00 00 00       	mov    $0x0,%eax
ffffffff80204db4:	e8 f1 16 00 00       	call   ffffffff802064aa <_ZN3VGA12print_formatEPKcz>
ffffffff80204db9:	e8 35 1a 00 00       	call   ffffffff802067f3 <_ZN13VirtualMemory10InitializeEv>
ffffffff80204dbe:	48 c7 c7 18 12 20 80 	mov    $0xffffffff80201218,%rdi
ffffffff80204dc5:	b8 00 00 00 00       	mov    $0x0,%eax
ffffffff80204dca:	e8 db 16 00 00       	call   ffffffff802064aa <_ZN3VGA12print_formatEPKcz>
ffffffff80204dcf:	e8 59 f0 ff ff       	call   ffffffff80203e2d <_ZN4Heap10InitializeEv>
ffffffff80204dd4:	48 c7 c7 63 12 20 80 	mov    $0xffffffff80201263,%rdi
ffffffff80204ddb:	b8 00 00 00 00       	mov    $0x0,%eax
ffffffff80204de0:	e8 c5 16 00 00       	call   ffffffff802064aa <_ZN3VGA12print_formatEPKcz>
ffffffff80204de5:	bf 08 00 00 00       	mov    $0x8,%edi
ffffffff80204dea:	e8 8a f1 ff ff       	call   ffffffff80203f79 <_Znwm>
ffffffff80204def:	48 89 c3             	mov    %rax,%rbx
ffffffff80204df2:	48 89 df             	mov    %rbx,%rdi
ffffffff80204df5:	e8 62 e8 ff ff       	call   ffffffff8020365c <_ZN5LAPICC1Ev>
ffffffff80204dfa:	48 89 1d 3f 0d 01 00 	mov    %rbx,0x10d3f(%rip)        # ffffffff80215b40 <lapic>
ffffffff80204e01:	e8 d6 e6 ff ff       	call   ffffffff802034dc <_ZN4ACPI9SetupAPICEv>
ffffffff80204e06:	48 c7 c7 81 12 20 80 	mov    $0xffffffff80201281,%rdi
ffffffff80204e0d:	b8 00 00 00 00       	mov    $0x0,%eax
ffffffff80204e12:	e8 93 16 00 00       	call   ffffffff802064aa <_ZN3VGA12print_formatEPKcz>
ffffffff80204e17:	e8 3c 02 00 00       	call   ffffffff80205058 <_ZN3PIT10InitializeEv>
ffffffff80204e1c:	48 c7 c7 98 12 20 80 	mov    $0xffffffff80201298,%rdi
ffffffff80204e23:	b8 00 00 00 00       	mov    $0x0,%eax
ffffffff80204e28:	e8 7d 16 00 00       	call   ffffffff802064aa <_ZN3VGA12print_formatEPKcz>
ffffffff80204e2d:	e8 fa 08 00 00       	call   ffffffff8020572c <_ZN13RealTimeClock8ReadTimeEv>
ffffffff80204e32:	48 89 45 e0          	mov    %rax,-0x20(%rbp)
ffffffff80204e36:	48 89 55 e8          	mov    %rdx,-0x18(%rbp)
ffffffff80204e3a:	0f b6 45 e0          	movzbl -0x20(%rbp),%eax
ffffffff80204e3e:	0f b6 f0             	movzbl %al,%esi
ffffffff80204e41:	0f b6 45 e1          	movzbl -0x1f(%rbp),%eax
ffffffff80204e45:	44 0f b6 c0          	movzbl %al,%r8d
ffffffff80204e49:	0f b6 45 e2          	movzbl -0x1e(%rbp),%eax
ffffffff80204e4d:	0f b6 f8             	movzbl %al,%edi
ffffffff80204e50:	8b 45 e8             	mov    -0x18(%rbp),%eax
ffffffff80204e53:	8d 88 d0 07 00 00    	lea    0x7d0(%rax),%ecx
ffffffff80204e59:	0f b6 45 e4          	movzbl -0x1c(%rbp),%eax
ffffffff80204e5d:	0f b6 d0             	movzbl %al,%edx
ffffffff80204e60:	0f b6 45 e5          	movzbl -0x1b(%rbp),%eax
ffffffff80204e64:	0f b6 c0             	movzbl %al,%eax
ffffffff80204e67:	48 83 ec 08          	sub    $0x8,%rsp
ffffffff80204e6b:	56                   	push   %rsi
ffffffff80204e6c:	45 89 c1             	mov    %r8d,%r9d
ffffffff80204e6f:	41 89 f8             	mov    %edi,%r8d
ffffffff80204e72:	89 c6                	mov    %eax,%esi
ffffffff80204e74:	48 c7 c7 ae 12 20 80 	mov    $0xffffffff802012ae,%rdi
ffffffff80204e7b:	b8 00 00 00 00       	mov    $0x0,%eax
ffffffff80204e80:	e8 25 16 00 00       	call   ffffffff802064aa <_ZN3VGA12print_formatEPKcz>
ffffffff80204e85:	48 83 c4 10          	add    $0x10,%rsp
ffffffff80204e89:	e8 62 0a 00 00       	call   ffffffff802058f0 <_ZN9Scheduler10InitializeEv>
ffffffff80204e8e:	48 c7 c0 cb 4c 20 80 	mov    $0xffffffff80204ccb,%rax
ffffffff80204e95:	48 89 c7             	mov    %rax,%rdi
ffffffff80204e98:	e8 7e 0a 00 00       	call   ffffffff8020591b <_ZN9Scheduler9AddThreadEm>
ffffffff80204e9d:	48 c7 c0 e6 4c 20 80 	mov    $0xffffffff80204ce6,%rax
ffffffff80204ea4:	48 89 c7             	mov    %rax,%rdi
ffffffff80204ea7:	e8 6f 0a 00 00       	call   ffffffff8020591b <_ZN9Scheduler9AddThreadEm>
ffffffff80204eac:	f4                   	hlt    
ffffffff80204ead:	eb fd                	jmp    ffffffff80204eac <kmain+0x1ab>

ffffffff80204eaf <_ZL4outbth>:
ffffffff80204eaf:	55                   	push   %rbp
ffffffff80204eb0:	48 89 e5             	mov    %rsp,%rbp
ffffffff80204eb3:	48 83 ec 08          	sub    $0x8,%rsp
ffffffff80204eb7:	89 f8                	mov    %edi,%eax
ffffffff80204eb9:	89 f2                	mov    %esi,%edx
ffffffff80204ebb:	66 89 45 fc          	mov    %ax,-0x4(%rbp)
ffffffff80204ebf:	89 d0                	mov    %edx,%eax
ffffffff80204ec1:	88 45 f8             	mov    %al,-0x8(%rbp)
ffffffff80204ec4:	0f b6 45 f8          	movzbl -0x8(%rbp),%eax
ffffffff80204ec8:	0f b7 55 fc          	movzwl -0x4(%rbp),%edx
ffffffff80204ecc:	ee                   	out    %al,(%dx)
ffffffff80204ecd:	90                   	nop
ffffffff80204ece:	c9                   	leave  
ffffffff80204ecf:	c3                   	ret    

ffffffff80204ed0 <_ZN3PIC9RemapIRQsEv>:
ffffffff80204ed0:	f3 0f 1e fa          	endbr64 
ffffffff80204ed4:	55                   	push   %rbp
ffffffff80204ed5:	48 89 e5             	mov    %rsp,%rbp
ffffffff80204ed8:	be 11 00 00 00       	mov    $0x11,%esi
ffffffff80204edd:	bf 20 00 00 00       	mov    $0x20,%edi
ffffffff80204ee2:	e8 c8 ff ff ff       	call   ffffffff80204eaf <_ZL4outbth>
ffffffff80204ee7:	be 11 00 00 00       	mov    $0x11,%esi
ffffffff80204eec:	bf a0 00 00 00       	mov    $0xa0,%edi
ffffffff80204ef1:	e8 b9 ff ff ff       	call   ffffffff80204eaf <_ZL4outbth>
ffffffff80204ef6:	be 20 00 00 00       	mov    $0x20,%esi
ffffffff80204efb:	bf 21 00 00 00       	mov    $0x21,%edi
ffffffff80204f00:	e8 aa ff ff ff       	call   ffffffff80204eaf <_ZL4outbth>
ffffffff80204f05:	be 28 00 00 00       	mov    $0x28,%esi
ffffffff80204f0a:	bf a1 00 00 00       	mov    $0xa1,%edi
ffffffff80204f0f:	e8 9b ff ff ff       	call   ffffffff80204eaf <_ZL4outbth>
ffffffff80204f14:	be 04 00 00 00       	mov    $0x4,%esi
ffffffff80204f19:	bf 21 00 00 00       	mov    $0x21,%edi
ffffffff80204f1e:	e8 8c ff ff ff       	call   ffffffff80204eaf <_ZL4outbth>
ffffffff80204f23:	be 02 00 00 00       	mov    $0x2,%esi
ffffffff80204f28:	bf a1 00 00 00       	mov    $0xa1,%edi
ffffffff80204f2d:	e8 7d ff ff ff       	call   ffffffff80204eaf <_ZL4outbth>
ffffffff80204f32:	be 01 00 00 00       	mov    $0x1,%esi
ffffffff80204f37:	bf 21 00 00 00       	mov    $0x21,%edi
ffffffff80204f3c:	e8 6e ff ff ff       	call   ffffffff80204eaf <_ZL4outbth>
ffffffff80204f41:	be 01 00 00 00       	mov    $0x1,%esi
ffffffff80204f46:	bf a1 00 00 00       	mov    $0xa1,%edi
ffffffff80204f4b:	e8 5f ff ff ff       	call   ffffffff80204eaf <_ZL4outbth>
ffffffff80204f50:	be ff 00 00 00       	mov    $0xff,%esi
ffffffff80204f55:	bf 21 00 00 00       	mov    $0x21,%edi
ffffffff80204f5a:	e8 50 ff ff ff       	call   ffffffff80204eaf <_ZL4outbth>
ffffffff80204f5f:	be ff 00 00 00       	mov    $0xff,%esi
ffffffff80204f64:	bf a1 00 00 00       	mov    $0xa1,%edi
ffffffff80204f69:	e8 41 ff ff ff       	call   ffffffff80204eaf <_ZL4outbth>
ffffffff80204f6e:	90                   	nop
ffffffff80204f6f:	5d                   	pop    %rbp
ffffffff80204f70:	c3                   	ret    

ffffffff80204f71 <_ZN3PIC18AckInterruptMasterEv>:
ffffffff80204f71:	f3 0f 1e fa          	endbr64 
ffffffff80204f75:	55                   	push   %rbp
ffffffff80204f76:	48 89 e5             	mov    %rsp,%rbp
ffffffff80204f79:	be 20 00 00 00       	mov    $0x20,%esi
ffffffff80204f7e:	bf 20 00 00 00       	mov    $0x20,%edi
ffffffff80204f83:	e8 27 ff ff ff       	call   ffffffff80204eaf <_ZL4outbth>
ffffffff80204f88:	90                   	nop
ffffffff80204f89:	5d                   	pop    %rbp
ffffffff80204f8a:	c3                   	ret    

ffffffff80204f8b <_ZN3PIC17AckInterruptSlaveEv>:
ffffffff80204f8b:	f3 0f 1e fa          	endbr64 
ffffffff80204f8f:	55                   	push   %rbp
ffffffff80204f90:	48 89 e5             	mov    %rsp,%rbp
ffffffff80204f93:	be 20 00 00 00       	mov    $0x20,%esi
ffffffff80204f98:	bf a0 00 00 00       	mov    $0xa0,%edi
ffffffff80204f9d:	e8 0d ff ff ff       	call   ffffffff80204eaf <_ZL4outbth>
ffffffff80204fa2:	90                   	nop
ffffffff80204fa3:	5d                   	pop    %rbp
ffffffff80204fa4:	c3                   	ret    

ffffffff80204fa5 <_ZL4outbth>:
ffffffff80204fa5:	55                   	push   %rbp
ffffffff80204fa6:	48 89 e5             	mov    %rsp,%rbp
ffffffff80204fa9:	48 83 ec 08          	sub    $0x8,%rsp
ffffffff80204fad:	89 f8                	mov    %edi,%eax
ffffffff80204faf:	89 f2                	mov    %esi,%edx
ffffffff80204fb1:	66 89 45 fc          	mov    %ax,-0x4(%rbp)
ffffffff80204fb5:	89 d0                	mov    %edx,%eax
ffffffff80204fb7:	88 45 f8             	mov    %al,-0x8(%rbp)
ffffffff80204fba:	0f b6 45 f8          	movzbl -0x8(%rbp),%eax
ffffffff80204fbe:	0f b7 55 fc          	movzwl -0x4(%rbp),%edx
ffffffff80204fc2:	ee                   	out    %al,(%dx)
ffffffff80204fc3:	90                   	nop
ffffffff80204fc4:	c9                   	leave  
ffffffff80204fc5:	c3                   	ret    

ffffffff80204fc6 <_Z11HandleTimerPN3IDT11registers_tE>:
ffffffff80204fc6:	f3 0f 1e fa          	endbr64 
ffffffff80204fca:	55                   	push   %rbp
ffffffff80204fcb:	48 89 e5             	mov    %rsp,%rbp
ffffffff80204fce:	48 83 ec 20          	sub    $0x20,%rsp
ffffffff80204fd2:	48 89 7d e8          	mov    %rdi,-0x18(%rbp)
ffffffff80204fd6:	e8 5d 10 00 00       	call   ffffffff80206038 <_ZN3VGA5get_xEv>
ffffffff80204fdb:	89 45 fc             	mov    %eax,-0x4(%rbp)
ffffffff80204fde:	e8 69 10 00 00       	call   ffffffff8020604c <_ZN3VGA5get_yEv>
ffffffff80204fe3:	89 45 f8             	mov    %eax,-0x8(%rbp)
ffffffff80204fe6:	be 00 00 00 00       	mov    $0x0,%esi
ffffffff80204feb:	bf 4f 00 00 00       	mov    $0x4f,%edi
ffffffff80204ff0:	e8 15 10 00 00       	call   ffffffff8020600a <_ZN3VGA7seek_toEii>
ffffffff80204ff5:	8b 05 65 4b 01 00    	mov    0x14b65(%rip),%eax        # ffffffff80219b60 <_ZL12ticker_index>
ffffffff80204ffb:	8d 50 01             	lea    0x1(%rax),%edx
ffffffff80204ffe:	89 15 5c 4b 01 00    	mov    %edx,0x14b5c(%rip)        # ffffffff80219b60 <_ZL12ticker_index>
ffffffff80205004:	48 98                	cltq   
ffffffff80205006:	0f b6 80 cc 12 20 80 	movzbl -0x7fdfed34(%rax),%eax
ffffffff8020500d:	0f be c0             	movsbl %al,%eax
ffffffff80205010:	89 c7                	mov    %eax,%edi
ffffffff80205012:	e8 a8 0e 00 00       	call   ffffffff80205ebf <_ZN3VGA4putcEc>
ffffffff80205017:	8b 05 43 4b 01 00    	mov    0x14b43(%rip),%eax        # ffffffff80219b60 <_ZL12ticker_index>
ffffffff8020501d:	83 f8 03             	cmp    $0x3,%eax
ffffffff80205020:	7e 0a                	jle    ffffffff8020502c <_Z11HandleTimerPN3IDT11registers_tE+0x66>
ffffffff80205022:	c7 05 34 4b 01 00 00 	movl   $0x0,0x14b34(%rip)        # ffffffff80219b60 <_ZL12ticker_index>
ffffffff80205029:	00 00 00 
ffffffff8020502c:	8b 55 f8             	mov    -0x8(%rbp),%edx
ffffffff8020502f:	8b 45 fc             	mov    -0x4(%rbp),%eax
ffffffff80205032:	89 d6                	mov    %edx,%esi
ffffffff80205034:	89 c7                	mov    %eax,%edi
ffffffff80205036:	e8 cf 0f 00 00       	call   ffffffff8020600a <_ZN3VGA7seek_toEii>
ffffffff8020503b:	48 8b 05 fe 0a 01 00 	mov    0x10afe(%rip),%rax        # ffffffff80215b40 <lapic>
ffffffff80205042:	48 89 c7             	mov    %rax,%rdi
ffffffff80205045:	e8 aa e6 ff ff       	call   ffffffff802036f4 <_ZN5LAPIC3EOIEv>
ffffffff8020504a:	48 8b 45 e8          	mov    -0x18(%rbp),%rax
ffffffff8020504e:	48 89 c7             	mov    %rax,%rdi
ffffffff80205051:	e8 cf 09 00 00       	call   ffffffff80205a25 <_ZN9Scheduler4TickEPN3IDT11registers_tE>
ffffffff80205056:	c9                   	leave  
ffffffff80205057:	c3                   	ret    

ffffffff80205058 <_ZN3PIT10InitializeEv>:
ffffffff80205058:	f3 0f 1e fa          	endbr64 
ffffffff8020505c:	55                   	push   %rbp
ffffffff8020505d:	48 89 e5             	mov    %rsp,%rbp
ffffffff80205060:	48 83 ec 10          	sub    $0x10,%rsp
ffffffff80205064:	48 c7 c6 c6 4f 20 80 	mov    $0xffffffff80204fc6,%rsi
ffffffff8020506b:	bf 20 00 00 00       	mov    $0x20,%edi
ffffffff80205070:	e8 c9 f0 ff ff       	call   ffffffff8020413e <_ZN3IDT13RegisterEntryEiPFPNS_11registers_tES1_E>
ffffffff80205075:	8b 0d 9d 27 00 00    	mov    0x279d(%rip),%ecx        # ffffffff80207818 <hz>
ffffffff8020507b:	b8 de 34 12 00       	mov    $0x1234de,%eax
ffffffff80205080:	99                   	cltd   
ffffffff80205081:	f7 f9                	idiv   %ecx
ffffffff80205083:	89 45 fc             	mov    %eax,-0x4(%rbp)
ffffffff80205086:	be 36 00 00 00       	mov    $0x36,%esi
ffffffff8020508b:	bf 43 00 00 00       	mov    $0x43,%edi
ffffffff80205090:	e8 10 ff ff ff       	call   ffffffff80204fa5 <_ZL4outbth>
ffffffff80205095:	8b 45 fc             	mov    -0x4(%rbp),%eax
ffffffff80205098:	88 45 fb             	mov    %al,-0x5(%rbp)
ffffffff8020509b:	8b 45 fc             	mov    -0x4(%rbp),%eax
ffffffff8020509e:	c1 e8 08             	shr    $0x8,%eax
ffffffff802050a1:	88 45 fa             	mov    %al,-0x6(%rbp)
ffffffff802050a4:	0f b6 45 fb          	movzbl -0x5(%rbp),%eax
ffffffff802050a8:	89 c6                	mov    %eax,%esi
ffffffff802050aa:	bf 40 00 00 00       	mov    $0x40,%edi
ffffffff802050af:	e8 f1 fe ff ff       	call   ffffffff80204fa5 <_ZL4outbth>
ffffffff802050b4:	0f b6 45 fa          	movzbl -0x6(%rbp),%eax
ffffffff802050b8:	89 c6                	mov    %eax,%esi
ffffffff802050ba:	bf 40 00 00 00       	mov    $0x40,%edi
ffffffff802050bf:	e8 e1 fe ff ff       	call   ffffffff80204fa5 <_ZL4outbth>
ffffffff802050c4:	90                   	nop
ffffffff802050c5:	c9                   	leave  
ffffffff802050c6:	c3                   	ret    

ffffffff802050c7 <_ZL10InnerAllocmm>:
ffffffff802050c7:	f3 0f 1e fa          	endbr64 
ffffffff802050cb:	55                   	push   %rbp
ffffffff802050cc:	48 89 e5             	mov    %rsp,%rbp
ffffffff802050cf:	48 83 ec 30          	sub    $0x30,%rsp
ffffffff802050d3:	48 89 7d d8          	mov    %rdi,-0x28(%rbp)
ffffffff802050d7:	48 89 75 d0          	mov    %rsi,-0x30(%rbp)
ffffffff802050db:	48 c7 45 f8 00 00 00 	movq   $0x0,-0x8(%rbp)
ffffffff802050e2:	00 
ffffffff802050e3:	e9 91 00 00 00       	jmp    ffffffff80205179 <_ZL10InnerAllocmm+0xb2>
ffffffff802050e8:	48 8b 05 89 4a 01 00 	mov    0x14a89(%rip),%rax        # ffffffff80219b78 <_ZL5lastI>
ffffffff802050ef:	48 8d 50 01          	lea    0x1(%rax),%rdx
ffffffff802050f3:	48 89 15 7e 4a 01 00 	mov    %rdx,0x14a7e(%rip)        # ffffffff80219b78 <_ZL5lastI>
ffffffff802050fa:	48 89 c6             	mov    %rax,%rsi
ffffffff802050fd:	48 c7 c7 68 9b 21 80 	mov    $0xffffffff80219b68,%rdi
ffffffff80205104:	e8 15 e6 ff ff       	call   ffffffff8020371e <_ZN6BitmapixEm>
ffffffff80205109:	83 f0 01             	xor    $0x1,%eax
ffffffff8020510c:	84 c0                	test   %al,%al
ffffffff8020510e:	74 61                	je     ffffffff80205171 <_ZL10InnerAllocmm+0xaa>
ffffffff80205110:	48 83 45 f8 01       	addq   $0x1,-0x8(%rbp)
ffffffff80205115:	48 8b 45 f8          	mov    -0x8(%rbp),%rax
ffffffff80205119:	48 3b 45 d8          	cmp    -0x28(%rbp),%rax
ffffffff8020511d:	0f 94 c0             	sete   %al
ffffffff80205120:	84 c0                	test   %al,%al
ffffffff80205122:	74 55                	je     ffffffff80205179 <_ZL10InnerAllocmm+0xb2>
ffffffff80205124:	48 8b 05 4d 4a 01 00 	mov    0x14a4d(%rip),%rax        # ffffffff80219b78 <_ZL5lastI>
ffffffff8020512b:	48 2b 45 d8          	sub    -0x28(%rbp),%rax
ffffffff8020512f:	48 89 45 e8          	mov    %rax,-0x18(%rbp)
ffffffff80205133:	48 8b 45 e8          	mov    -0x18(%rbp),%rax
ffffffff80205137:	48 89 45 f0          	mov    %rax,-0x10(%rbp)
ffffffff8020513b:	eb 1d                	jmp    ffffffff8020515a <_ZL10InnerAllocmm+0x93>
ffffffff8020513d:	48 8b 45 f0          	mov    -0x10(%rbp),%rax
ffffffff80205141:	ba 01 00 00 00       	mov    $0x1,%edx
ffffffff80205146:	48 89 c6             	mov    %rax,%rsi
ffffffff80205149:	48 c7 c7 68 9b 21 80 	mov    $0xffffffff80219b68,%rdi
ffffffff80205150:	e8 f3 e5 ff ff       	call   ffffffff80203748 <_ZN6Bitmap3SetEmb>
ffffffff80205155:	48 83 45 f0 01       	addq   $0x1,-0x10(%rbp)
ffffffff8020515a:	48 8b 05 17 4a 01 00 	mov    0x14a17(%rip),%rax        # ffffffff80219b78 <_ZL5lastI>
ffffffff80205161:	48 39 45 f0          	cmp    %rax,-0x10(%rbp)
ffffffff80205165:	72 d6                	jb     ffffffff8020513d <_ZL10InnerAllocmm+0x76>
ffffffff80205167:	48 8b 45 e8          	mov    -0x18(%rbp),%rax
ffffffff8020516b:	48 c1 e0 0c          	shl    $0xc,%rax
ffffffff8020516f:	eb 1e                	jmp    ffffffff8020518f <_ZL10InnerAllocmm+0xc8>
ffffffff80205171:	48 c7 45 f8 00 00 00 	movq   $0x0,-0x8(%rbp)
ffffffff80205178:	00 
ffffffff80205179:	48 8b 05 f8 49 01 00 	mov    0x149f8(%rip),%rax        # ffffffff80219b78 <_ZL5lastI>
ffffffff80205180:	48 39 45 d0          	cmp    %rax,-0x30(%rbp)
ffffffff80205184:	0f 87 5e ff ff ff    	ja     ffffffff802050e8 <_ZL10InnerAllocmm+0x21>
ffffffff8020518a:	b8 00 00 00 00       	mov    $0x0,%eax
ffffffff8020518f:	c9                   	leave  
ffffffff80205190:	c3                   	ret    

ffffffff80205191 <_ZN14PhysicalMemory10AllocPagesEm>:
ffffffff80205191:	f3 0f 1e fa          	endbr64 
ffffffff80205195:	55                   	push   %rbp
ffffffff80205196:	48 89 e5             	mov    %rsp,%rbp
ffffffff80205199:	48 83 ec 30          	sub    $0x30,%rsp
ffffffff8020519d:	48 89 7d d8          	mov    %rdi,-0x28(%rbp)
ffffffff802051a1:	48 8b 05 d0 49 01 00 	mov    0x149d0(%rip),%rax        # ffffffff80219b78 <_ZL5lastI>
ffffffff802051a8:	48 89 45 e8          	mov    %rax,-0x18(%rbp)
ffffffff802051ac:	48 8b 05 bd 49 01 00 	mov    0x149bd(%rip),%rax        # ffffffff80219b70 <_ZL12highest_addr>
ffffffff802051b3:	48 c1 e8 0c          	shr    $0xc,%rax
ffffffff802051b7:	48 89 c2             	mov    %rax,%rdx
ffffffff802051ba:	48 8b 45 d8          	mov    -0x28(%rbp),%rax
ffffffff802051be:	48 89 d6             	mov    %rdx,%rsi
ffffffff802051c1:	48 89 c7             	mov    %rax,%rdi
ffffffff802051c4:	e8 fe fe ff ff       	call   ffffffff802050c7 <_ZL10InnerAllocmm>
ffffffff802051c9:	48 89 45 f8          	mov    %rax,-0x8(%rbp)
ffffffff802051cd:	48 83 7d f8 00       	cmpq   $0x0,-0x8(%rbp)
ffffffff802051d2:	75 4d                	jne    ffffffff80205221 <_ZN14PhysicalMemory10AllocPagesEm+0x90>
ffffffff802051d4:	48 c7 05 99 49 01 00 	movq   $0x0,0x14999(%rip)        # ffffffff80219b78 <_ZL5lastI>
ffffffff802051db:	00 00 00 00 
ffffffff802051df:	48 8b 55 e8          	mov    -0x18(%rbp),%rdx
ffffffff802051e3:	48 8b 45 d8          	mov    -0x28(%rbp),%rax
ffffffff802051e7:	48 89 d6             	mov    %rdx,%rsi
ffffffff802051ea:	48 89 c7             	mov    %rax,%rdi
ffffffff802051ed:	e8 d5 fe ff ff       	call   ffffffff802050c7 <_ZL10InnerAllocmm>
ffffffff802051f2:	48 89 45 f8          	mov    %rax,-0x8(%rbp)
ffffffff802051f6:	48 83 7d f8 00       	cmpq   $0x0,-0x8(%rbp)
ffffffff802051fb:	75 24                	jne    ffffffff80205221 <_ZN14PhysicalMemory10AllocPagesEm+0x90>
ffffffff802051fd:	48 c7 c7 d0 12 20 80 	mov    $0xffffffff802012d0,%rdi
ffffffff80205204:	b8 00 00 00 00       	mov    $0x0,%eax
ffffffff80205209:	e8 9c 12 00 00       	call   ffffffff802064aa <_ZN3VGA12print_formatEPKcz>
ffffffff8020520e:	48 c7 c7 e7 12 20 80 	mov    $0xffffffff802012e7,%rdi
ffffffff80205215:	b8 00 00 00 00       	mov    $0x0,%eax
ffffffff8020521a:	e8 8b 12 00 00       	call   ffffffff802064aa <_ZN3VGA12print_formatEPKcz>
ffffffff8020521f:	eb ed                	jmp    ffffffff8020520e <_ZN14PhysicalMemory10AllocPagesEm+0x7d>
ffffffff80205221:	48 c7 45 f0 00 00 00 	movq   $0x0,-0x10(%rbp)
ffffffff80205228:	00 
ffffffff80205229:	eb 0c                	jmp    ffffffff80205237 <_ZN14PhysicalMemory10AllocPagesEm+0xa6>
ffffffff8020522b:	48 8b 45 f8          	mov    -0x8(%rbp),%rax
ffffffff8020522f:	c6 00 00             	movb   $0x0,(%rax)
ffffffff80205232:	48 83 45 f0 01       	addq   $0x1,-0x10(%rbp)
ffffffff80205237:	48 8b 45 d8          	mov    -0x28(%rbp),%rax
ffffffff8020523b:	48 c1 e0 0c          	shl    $0xc,%rax
ffffffff8020523f:	48 39 45 f0          	cmp    %rax,-0x10(%rbp)
ffffffff80205243:	72 e6                	jb     ffffffff8020522b <_ZN14PhysicalMemory10AllocPagesEm+0x9a>
ffffffff80205245:	48 8b 45 d8          	mov    -0x28(%rbp),%rax
ffffffff80205249:	48 c1 e0 0c          	shl    $0xc,%rax
ffffffff8020524d:	48 89 c2             	mov    %rax,%rdx
ffffffff80205250:	48 8b 05 29 49 01 00 	mov    0x14929(%rip),%rax        # ffffffff80219b80 <_ZL7usedRam>
ffffffff80205257:	48 01 d0             	add    %rdx,%rax
ffffffff8020525a:	48 89 05 1f 49 01 00 	mov    %rax,0x1491f(%rip)        # ffffffff80219b80 <_ZL7usedRam>
ffffffff80205261:	48 8b 05 20 49 01 00 	mov    0x14920(%rip),%rax        # ffffffff80219b88 <_ZL7freeRam>
ffffffff80205268:	48 8b 55 d8          	mov    -0x28(%rbp),%rdx
ffffffff8020526c:	48 c1 e2 0c          	shl    $0xc,%rdx
ffffffff80205270:	48 29 d0             	sub    %rdx,%rax
ffffffff80205273:	48 89 05 0e 49 01 00 	mov    %rax,0x1490e(%rip)        # ffffffff80219b88 <_ZL7freeRam>
ffffffff8020527a:	48 8b 45 f8          	mov    -0x8(%rbp),%rax
ffffffff8020527e:	c9                   	leave  
ffffffff8020527f:	c3                   	ret    

ffffffff80205280 <_ZN14PhysicalMemory9FreePagesEPvm>:
ffffffff80205280:	f3 0f 1e fa          	endbr64 
ffffffff80205284:	55                   	push   %rbp
ffffffff80205285:	48 89 e5             	mov    %rsp,%rbp
ffffffff80205288:	48 83 ec 20          	sub    $0x20,%rsp
ffffffff8020528c:	48 89 7d e8          	mov    %rdi,-0x18(%rbp)
ffffffff80205290:	48 89 75 e0          	mov    %rsi,-0x20(%rbp)
ffffffff80205294:	48 83 7d e8 00       	cmpq   $0x0,-0x18(%rbp)
ffffffff80205299:	0f 84 93 00 00 00    	je     ffffffff80205332 <_ZN14PhysicalMemory9FreePagesEPvm+0xb2>
ffffffff8020529f:	48 8b 45 e8          	mov    -0x18(%rbp),%rax
ffffffff802052a3:	48 c1 e8 0c          	shr    $0xc,%rax
ffffffff802052a7:	48 89 45 f0          	mov    %rax,-0x10(%rbp)
ffffffff802052ab:	48 8b 45 f0          	mov    -0x10(%rbp),%rax
ffffffff802052af:	48 89 45 f8          	mov    %rax,-0x8(%rbp)
ffffffff802052b3:	eb 1d                	jmp    ffffffff802052d2 <_ZN14PhysicalMemory9FreePagesEPvm+0x52>
ffffffff802052b5:	48 8b 45 f8          	mov    -0x8(%rbp),%rax
ffffffff802052b9:	ba 00 00 00 00       	mov    $0x0,%edx
ffffffff802052be:	48 89 c6             	mov    %rax,%rsi
ffffffff802052c1:	48 c7 c7 68 9b 21 80 	mov    $0xffffffff80219b68,%rdi
ffffffff802052c8:	e8 7b e4 ff ff       	call   ffffffff80203748 <_ZN6Bitmap3SetEmb>
ffffffff802052cd:	48 83 45 f8 01       	addq   $0x1,-0x8(%rbp)
ffffffff802052d2:	48 8b 55 f0          	mov    -0x10(%rbp),%rdx
ffffffff802052d6:	48 8b 45 e0          	mov    -0x20(%rbp),%rax
ffffffff802052da:	48 01 d0             	add    %rdx,%rax
ffffffff802052dd:	48 39 45 f8          	cmp    %rax,-0x8(%rbp)
ffffffff802052e1:	72 d2                	jb     ffffffff802052b5 <_ZN14PhysicalMemory9FreePagesEPvm+0x35>
ffffffff802052e3:	48 8b 05 8e 48 01 00 	mov    0x1488e(%rip),%rax        # ffffffff80219b78 <_ZL5lastI>
ffffffff802052ea:	48 39 45 f0          	cmp    %rax,-0x10(%rbp)
ffffffff802052ee:	73 0b                	jae    ffffffff802052fb <_ZN14PhysicalMemory9FreePagesEPvm+0x7b>
ffffffff802052f0:	48 8b 45 f0          	mov    -0x10(%rbp),%rax
ffffffff802052f4:	48 89 05 7d 48 01 00 	mov    %rax,0x1487d(%rip)        # ffffffff80219b78 <_ZL5lastI>
ffffffff802052fb:	48 8b 05 7e 48 01 00 	mov    0x1487e(%rip),%rax        # ffffffff80219b80 <_ZL7usedRam>
ffffffff80205302:	48 8b 55 e0          	mov    -0x20(%rbp),%rdx
ffffffff80205306:	48 c1 e2 0c          	shl    $0xc,%rdx
ffffffff8020530a:	48 29 d0             	sub    %rdx,%rax
ffffffff8020530d:	48 89 05 6c 48 01 00 	mov    %rax,0x1486c(%rip)        # ffffffff80219b80 <_ZL7usedRam>
ffffffff80205314:	48 8b 45 e0          	mov    -0x20(%rbp),%rax
ffffffff80205318:	48 c1 e0 0c          	shl    $0xc,%rax
ffffffff8020531c:	48 89 c2             	mov    %rax,%rdx
ffffffff8020531f:	48 8b 05 62 48 01 00 	mov    0x14862(%rip),%rax        # ffffffff80219b88 <_ZL7freeRam>
ffffffff80205326:	48 01 d0             	add    %rdx,%rax
ffffffff80205329:	48 89 05 58 48 01 00 	mov    %rax,0x14858(%rip)        # ffffffff80219b88 <_ZL7freeRam>
ffffffff80205330:	eb 01                	jmp    ffffffff80205333 <_ZN14PhysicalMemory9FreePagesEPvm+0xb3>
ffffffff80205332:	90                   	nop
ffffffff80205333:	c9                   	leave  
ffffffff80205334:	c3                   	ret    

ffffffff80205335 <_ZN14PhysicalMemory10InitializeEP26stivale2_struct_tag_memmap>:
ffffffff80205335:	f3 0f 1e fa          	endbr64 
ffffffff80205339:	55                   	push   %rbp
ffffffff8020533a:	48 89 e5             	mov    %rsp,%rbp
ffffffff8020533d:	48 83 ec 50          	sub    $0x50,%rsp
ffffffff80205341:	48 89 7d b8          	mov    %rdi,-0x48(%rbp)
ffffffff80205345:	48 c7 45 f8 00 00 00 	movq   $0x0,-0x8(%rbp)
ffffffff8020534c:	00 
ffffffff8020534d:	e9 c0 00 00 00       	jmp    ffffffff80205412 <_ZN14PhysicalMemory10InitializeEP26stivale2_struct_tag_memmap+0xdd>
ffffffff80205352:	48 8b 4d b8          	mov    -0x48(%rbp),%rcx
ffffffff80205356:	48 8b 55 f8          	mov    -0x8(%rbp),%rdx
ffffffff8020535a:	48 89 d0             	mov    %rdx,%rax
ffffffff8020535d:	48 01 c0             	add    %rax,%rax
ffffffff80205360:	48 01 d0             	add    %rdx,%rax
ffffffff80205363:	48 c1 e0 03          	shl    $0x3,%rax
ffffffff80205367:	48 01 c8             	add    %rcx,%rax
ffffffff8020536a:	48 83 c0 20          	add    $0x20,%rax
ffffffff8020536e:	8b 40 08             	mov    0x8(%rax),%eax
ffffffff80205371:	83 f8 01             	cmp    $0x1,%eax
ffffffff80205374:	0f 85 92 00 00 00    	jne    ffffffff8020540c <_ZN14PhysicalMemory10InitializeEP26stivale2_struct_tag_memmap+0xd7>
ffffffff8020537a:	48 8b 4d b8          	mov    -0x48(%rbp),%rcx
ffffffff8020537e:	48 8b 55 f8          	mov    -0x8(%rbp),%rdx
ffffffff80205382:	48 89 d0             	mov    %rdx,%rax
ffffffff80205385:	48 01 c0             	add    %rax,%rax
ffffffff80205388:	48 01 d0             	add    %rdx,%rax
ffffffff8020538b:	48 c1 e0 03          	shl    $0x3,%rax
ffffffff8020538f:	48 01 c8             	add    %rcx,%rax
ffffffff80205392:	48 83 c0 10          	add    $0x10,%rax
ffffffff80205396:	48 8b 48 08          	mov    0x8(%rax),%rcx
ffffffff8020539a:	48 8b 75 b8          	mov    -0x48(%rbp),%rsi
ffffffff8020539e:	48 8b 55 f8          	mov    -0x8(%rbp),%rdx
ffffffff802053a2:	48 89 d0             	mov    %rdx,%rax
ffffffff802053a5:	48 01 c0             	add    %rax,%rax
ffffffff802053a8:	48 01 d0             	add    %rdx,%rax
ffffffff802053ab:	48 c1 e0 03          	shl    $0x3,%rax
ffffffff802053af:	48 01 f0             	add    %rsi,%rax
ffffffff802053b2:	48 83 c0 10          	add    $0x10,%rax
ffffffff802053b6:	48 8b 40 10          	mov    0x10(%rax),%rax
ffffffff802053ba:	48 01 c8             	add    %rcx,%rax
ffffffff802053bd:	48 89 45 c8          	mov    %rax,-0x38(%rbp)
ffffffff802053c1:	48 8b 4d b8          	mov    -0x48(%rbp),%rcx
ffffffff802053c5:	48 8b 55 f8          	mov    -0x8(%rbp),%rdx
ffffffff802053c9:	48 89 d0             	mov    %rdx,%rax
ffffffff802053cc:	48 01 c0             	add    %rax,%rax
ffffffff802053cf:	48 01 d0             	add    %rdx,%rax
ffffffff802053d2:	48 c1 e0 03          	shl    $0x3,%rax
ffffffff802053d6:	48 01 c8             	add    %rcx,%rax
ffffffff802053d9:	48 83 c0 10          	add    $0x10,%rax
ffffffff802053dd:	48 8b 50 10          	mov    0x10(%rax),%rdx
ffffffff802053e1:	48 8b 05 a0 47 01 00 	mov    0x147a0(%rip),%rax        # ffffffff80219b88 <_ZL7freeRam>
ffffffff802053e8:	48 01 d0             	add    %rdx,%rax
ffffffff802053eb:	48 89 05 96 47 01 00 	mov    %rax,0x14796(%rip)        # ffffffff80219b88 <_ZL7freeRam>
ffffffff802053f2:	48 8b 05 77 47 01 00 	mov    0x14777(%rip),%rax        # ffffffff80219b70 <_ZL12highest_addr>
ffffffff802053f9:	48 39 45 c8          	cmp    %rax,-0x38(%rbp)
ffffffff802053fd:	76 0e                	jbe    ffffffff8020540d <_ZN14PhysicalMemory10InitializeEP26stivale2_struct_tag_memmap+0xd8>
ffffffff802053ff:	48 8b 45 c8          	mov    -0x38(%rbp),%rax
ffffffff80205403:	48 89 05 66 47 01 00 	mov    %rax,0x14766(%rip)        # ffffffff80219b70 <_ZL12highest_addr>
ffffffff8020540a:	eb 01                	jmp    ffffffff8020540d <_ZN14PhysicalMemory10InitializeEP26stivale2_struct_tag_memmap+0xd8>
ffffffff8020540c:	90                   	nop
ffffffff8020540d:	48 83 45 f8 01       	addq   $0x1,-0x8(%rbp)
ffffffff80205412:	48 8b 45 b8          	mov    -0x48(%rbp),%rax
ffffffff80205416:	48 8b 40 10          	mov    0x10(%rax),%rax
ffffffff8020541a:	48 39 45 f8          	cmp    %rax,-0x8(%rbp)
ffffffff8020541e:	0f 82 2e ff ff ff    	jb     ffffffff80205352 <_ZN14PhysicalMemory10InitializeEP26stivale2_struct_tag_memmap+0x1d>
ffffffff80205424:	48 8b 05 45 47 01 00 	mov    0x14745(%rip),%rax        # ffffffff80219b70 <_ZL12highest_addr>
ffffffff8020542b:	48 c1 e8 0f          	shr    $0xf,%rax
ffffffff8020542f:	48 05 ff 0f 00 00    	add    $0xfff,%rax
ffffffff80205435:	48 25 00 f0 ff ff    	and    $0xfffffffffffff000,%rax
ffffffff8020543b:	48 89 45 d0          	mov    %rax,-0x30(%rbp)
ffffffff8020543f:	48 c7 45 f0 00 00 00 	movq   $0x0,-0x10(%rbp)
ffffffff80205446:	00 
ffffffff80205447:	e9 4c 01 00 00       	jmp    ffffffff80205598 <_ZN14PhysicalMemory10InitializeEP26stivale2_struct_tag_memmap+0x263>
ffffffff8020544c:	48 8b 4d b8          	mov    -0x48(%rbp),%rcx
ffffffff80205450:	48 8b 55 f0          	mov    -0x10(%rbp),%rdx
ffffffff80205454:	48 89 d0             	mov    %rdx,%rax
ffffffff80205457:	48 01 c0             	add    %rax,%rax
ffffffff8020545a:	48 01 d0             	add    %rdx,%rax
ffffffff8020545d:	48 c1 e0 03          	shl    $0x3,%rax
ffffffff80205461:	48 01 c8             	add    %rcx,%rax
ffffffff80205464:	48 83 c0 20          	add    $0x20,%rax
ffffffff80205468:	8b 40 08             	mov    0x8(%rax),%eax
ffffffff8020546b:	83 f8 01             	cmp    $0x1,%eax
ffffffff8020546e:	0f 85 1e 01 00 00    	jne    ffffffff80205592 <_ZN14PhysicalMemory10InitializeEP26stivale2_struct_tag_memmap+0x25d>
ffffffff80205474:	48 8b 4d b8          	mov    -0x48(%rbp),%rcx
ffffffff80205478:	48 8b 55 f0          	mov    -0x10(%rbp),%rdx
ffffffff8020547c:	48 89 d0             	mov    %rdx,%rax
ffffffff8020547f:	48 01 c0             	add    %rax,%rax
ffffffff80205482:	48 01 d0             	add    %rdx,%rax
ffffffff80205485:	48 c1 e0 03          	shl    $0x3,%rax
ffffffff80205489:	48 01 c8             	add    %rcx,%rax
ffffffff8020548c:	48 83 c0 10          	add    $0x10,%rax
ffffffff80205490:	48 8b 40 10          	mov    0x10(%rax),%rax
ffffffff80205494:	48 39 45 d0          	cmp    %rax,-0x30(%rbp)
ffffffff80205498:	0f 87 f5 00 00 00    	ja     ffffffff80205593 <_ZN14PhysicalMemory10InitializeEP26stivale2_struct_tag_memmap+0x25e>
ffffffff8020549e:	48 8b 4d b8          	mov    -0x48(%rbp),%rcx
ffffffff802054a2:	48 8b 55 f0          	mov    -0x10(%rbp),%rdx
ffffffff802054a6:	48 89 d0             	mov    %rdx,%rax
ffffffff802054a9:	48 01 c0             	add    %rax,%rax
ffffffff802054ac:	48 01 d0             	add    %rdx,%rax
ffffffff802054af:	48 c1 e0 03          	shl    $0x3,%rax
ffffffff802054b3:	48 01 c8             	add    %rcx,%rax
ffffffff802054b6:	48 83 c0 10          	add    $0x10,%rax
ffffffff802054ba:	48 8b 40 08          	mov    0x8(%rax),%rax
ffffffff802054be:	48 89 05 a3 46 01 00 	mov    %rax,0x146a3(%rip)        # ffffffff80219b68 <bitmap>
ffffffff802054c5:	48 c7 45 e8 00 00 00 	movq   $0x0,-0x18(%rbp)
ffffffff802054cc:	00 
ffffffff802054cd:	eb 16                	jmp    ffffffff802054e5 <_ZN14PhysicalMemory10InitializeEP26stivale2_struct_tag_memmap+0x1b0>
ffffffff802054cf:	48 8b 15 92 46 01 00 	mov    0x14692(%rip),%rdx        # ffffffff80219b68 <bitmap>
ffffffff802054d6:	48 8b 45 e8          	mov    -0x18(%rbp),%rax
ffffffff802054da:	48 01 d0             	add    %rdx,%rax
ffffffff802054dd:	c6 00 ff             	movb   $0xff,(%rax)
ffffffff802054e0:	48 83 45 e8 01       	addq   $0x1,-0x18(%rbp)
ffffffff802054e5:	48 8b 45 e8          	mov    -0x18(%rbp),%rax
ffffffff802054e9:	48 3b 45 d0          	cmp    -0x30(%rbp),%rax
ffffffff802054ed:	72 e0                	jb     ffffffff802054cf <_ZN14PhysicalMemory10InitializeEP26stivale2_struct_tag_memmap+0x19a>
ffffffff802054ef:	48 8b 4d b8          	mov    -0x48(%rbp),%rcx
ffffffff802054f3:	48 8b 55 f0          	mov    -0x10(%rbp),%rdx
ffffffff802054f7:	48 89 d0             	mov    %rdx,%rax
ffffffff802054fa:	48 01 c0             	add    %rax,%rax
ffffffff802054fd:	48 01 d0             	add    %rdx,%rax
ffffffff80205500:	48 c1 e0 03          	shl    $0x3,%rax
ffffffff80205504:	48 01 c8             	add    %rcx,%rax
ffffffff80205507:	48 83 c0 10          	add    $0x10,%rax
ffffffff8020550b:	48 8b 40 10          	mov    0x10(%rax),%rax
ffffffff8020550f:	48 2b 45 d0          	sub    -0x30(%rbp),%rax
ffffffff80205513:	48 89 c2             	mov    %rax,%rdx
ffffffff80205516:	48 8b 75 b8          	mov    -0x48(%rbp),%rsi
ffffffff8020551a:	48 8b 4d f0          	mov    -0x10(%rbp),%rcx
ffffffff8020551e:	48 89 c8             	mov    %rcx,%rax
ffffffff80205521:	48 01 c0             	add    %rax,%rax
ffffffff80205524:	48 01 c8             	add    %rcx,%rax
ffffffff80205527:	48 c1 e0 03          	shl    $0x3,%rax
ffffffff8020552b:	48 01 f0             	add    %rsi,%rax
ffffffff8020552e:	48 83 c0 10          	add    $0x10,%rax
ffffffff80205532:	48 89 50 10          	mov    %rdx,0x10(%rax)
ffffffff80205536:	48 8b 4d b8          	mov    -0x48(%rbp),%rcx
ffffffff8020553a:	48 8b 55 f0          	mov    -0x10(%rbp),%rdx
ffffffff8020553e:	48 89 d0             	mov    %rdx,%rax
ffffffff80205541:	48 01 c0             	add    %rax,%rax
ffffffff80205544:	48 01 d0             	add    %rdx,%rax
ffffffff80205547:	48 c1 e0 03          	shl    $0x3,%rax
ffffffff8020554b:	48 01 c8             	add    %rcx,%rax
ffffffff8020554e:	48 83 c0 10          	add    $0x10,%rax
ffffffff80205552:	48 8b 50 08          	mov    0x8(%rax),%rdx
ffffffff80205556:	48 8b 45 d0          	mov    -0x30(%rbp),%rax
ffffffff8020555a:	48 8d 0c 02          	lea    (%rdx,%rax,1),%rcx
ffffffff8020555e:	48 8b 75 b8          	mov    -0x48(%rbp),%rsi
ffffffff80205562:	48 8b 55 f0          	mov    -0x10(%rbp),%rdx
ffffffff80205566:	48 89 d0             	mov    %rdx,%rax
ffffffff80205569:	48 01 c0             	add    %rax,%rax
ffffffff8020556c:	48 01 d0             	add    %rdx,%rax
ffffffff8020556f:	48 c1 e0 03          	shl    $0x3,%rax
ffffffff80205573:	48 01 f0             	add    %rsi,%rax
ffffffff80205576:	48 83 c0 10          	add    $0x10,%rax
ffffffff8020557a:	48 89 48 08          	mov    %rcx,0x8(%rax)
ffffffff8020557e:	48 8b 05 03 46 01 00 	mov    0x14603(%rip),%rax        # ffffffff80219b88 <_ZL7freeRam>
ffffffff80205585:	48 2b 45 d0          	sub    -0x30(%rbp),%rax
ffffffff80205589:	48 89 05 f8 45 01 00 	mov    %rax,0x145f8(%rip)        # ffffffff80219b88 <_ZL7freeRam>
ffffffff80205590:	eb 18                	jmp    ffffffff802055aa <_ZN14PhysicalMemory10InitializeEP26stivale2_struct_tag_memmap+0x275>
ffffffff80205592:	90                   	nop
ffffffff80205593:	48 83 45 f0 01       	addq   $0x1,-0x10(%rbp)
ffffffff80205598:	48 8b 45 b8          	mov    -0x48(%rbp),%rax
ffffffff8020559c:	48 8b 40 10          	mov    0x10(%rax),%rax
ffffffff802055a0:	48 39 45 f0          	cmp    %rax,-0x10(%rbp)
ffffffff802055a4:	0f 82 a2 fe ff ff    	jb     ffffffff8020544c <_ZN14PhysicalMemory10InitializeEP26stivale2_struct_tag_memmap+0x117>
ffffffff802055aa:	48 8b 05 b7 45 01 00 	mov    0x145b7(%rip),%rax        # ffffffff80219b68 <bitmap>
ffffffff802055b1:	48 89 c1             	mov    %rax,%rcx
ffffffff802055b4:	48 8b 45 d0          	mov    -0x30(%rbp),%rax
ffffffff802055b8:	48 89 c2             	mov    %rax,%rdx
ffffffff802055bb:	48 89 ce             	mov    %rcx,%rsi
ffffffff802055be:	48 c7 c7 e8 12 20 80 	mov    $0xffffffff802012e8,%rdi
ffffffff802055c5:	b8 00 00 00 00       	mov    $0x0,%eax
ffffffff802055ca:	e8 db 0e 00 00       	call   ffffffff802064aa <_ZN3VGA12print_formatEPKcz>
ffffffff802055cf:	48 c7 45 e0 00 00 00 	movq   $0x0,-0x20(%rbp)
ffffffff802055d6:	00 
ffffffff802055d7:	e9 a3 00 00 00       	jmp    ffffffff8020567f <_ZN14PhysicalMemory10InitializeEP26stivale2_struct_tag_memmap+0x34a>
ffffffff802055dc:	48 8b 4d b8          	mov    -0x48(%rbp),%rcx
ffffffff802055e0:	48 8b 55 e0          	mov    -0x20(%rbp),%rdx
ffffffff802055e4:	48 89 d0             	mov    %rdx,%rax
ffffffff802055e7:	48 01 c0             	add    %rax,%rax
ffffffff802055ea:	48 01 d0             	add    %rdx,%rax
ffffffff802055ed:	48 c1 e0 03          	shl    $0x3,%rax
ffffffff802055f1:	48 01 c8             	add    %rcx,%rax
ffffffff802055f4:	48 83 c0 20          	add    $0x20,%rax
ffffffff802055f8:	8b 40 08             	mov    0x8(%rax),%eax
ffffffff802055fb:	83 f8 01             	cmp    $0x1,%eax
ffffffff802055fe:	75 79                	jne    ffffffff80205679 <_ZN14PhysicalMemory10InitializeEP26stivale2_struct_tag_memmap+0x344>
ffffffff80205600:	48 c7 45 d8 00 00 00 	movq   $0x0,-0x28(%rbp)
ffffffff80205607:	00 
ffffffff80205608:	eb 47                	jmp    ffffffff80205651 <_ZN14PhysicalMemory10InitializeEP26stivale2_struct_tag_memmap+0x31c>
ffffffff8020560a:	48 8b 4d b8          	mov    -0x48(%rbp),%rcx
ffffffff8020560e:	48 8b 55 e0          	mov    -0x20(%rbp),%rdx
ffffffff80205612:	48 89 d0             	mov    %rdx,%rax
ffffffff80205615:	48 01 c0             	add    %rax,%rax
ffffffff80205618:	48 01 d0             	add    %rdx,%rax
ffffffff8020561b:	48 c1 e0 03          	shl    $0x3,%rax
ffffffff8020561f:	48 01 c8             	add    %rcx,%rax
ffffffff80205622:	48 83 c0 10          	add    $0x10,%rax
ffffffff80205626:	48 8b 50 08          	mov    0x8(%rax),%rdx
ffffffff8020562a:	48 8b 45 d8          	mov    -0x28(%rbp),%rax
ffffffff8020562e:	48 01 d0             	add    %rdx,%rax
ffffffff80205631:	48 c1 e8 0c          	shr    $0xc,%rax
ffffffff80205635:	ba 00 00 00 00       	mov    $0x0,%edx
ffffffff8020563a:	48 89 c6             	mov    %rax,%rsi
ffffffff8020563d:	48 c7 c7 68 9b 21 80 	mov    $0xffffffff80219b68,%rdi
ffffffff80205644:	e8 ff e0 ff ff       	call   ffffffff80203748 <_ZN6Bitmap3SetEmb>
ffffffff80205649:	48 81 45 d8 00 10 00 	addq   $0x1000,-0x28(%rbp)
ffffffff80205650:	00 
ffffffff80205651:	48 8b 4d b8          	mov    -0x48(%rbp),%rcx
ffffffff80205655:	48 8b 55 e0          	mov    -0x20(%rbp),%rdx
ffffffff80205659:	48 89 d0             	mov    %rdx,%rax
ffffffff8020565c:	48 01 c0             	add    %rax,%rax
ffffffff8020565f:	48 01 d0             	add    %rdx,%rax
ffffffff80205662:	48 c1 e0 03          	shl    $0x3,%rax
ffffffff80205666:	48 01 c8             	add    %rcx,%rax
ffffffff80205669:	48 83 c0 10          	add    $0x10,%rax
ffffffff8020566d:	48 8b 40 10          	mov    0x10(%rax),%rax
ffffffff80205671:	48 39 45 d8          	cmp    %rax,-0x28(%rbp)
ffffffff80205675:	72 93                	jb     ffffffff8020560a <_ZN14PhysicalMemory10InitializeEP26stivale2_struct_tag_memmap+0x2d5>
ffffffff80205677:	eb 01                	jmp    ffffffff8020567a <_ZN14PhysicalMemory10InitializeEP26stivale2_struct_tag_memmap+0x345>
ffffffff80205679:	90                   	nop
ffffffff8020567a:	48 83 45 e0 01       	addq   $0x1,-0x20(%rbp)
ffffffff8020567f:	48 8b 45 b8          	mov    -0x48(%rbp),%rax
ffffffff80205683:	48 8b 40 10          	mov    0x10(%rax),%rax
ffffffff80205687:	48 39 45 e0          	cmp    %rax,-0x20(%rbp)
ffffffff8020568b:	0f 82 4b ff ff ff    	jb     ffffffff802055dc <_ZN14PhysicalMemory10InitializeEP26stivale2_struct_tag_memmap+0x2a7>
ffffffff80205691:	90                   	nop
ffffffff80205692:	90                   	nop
ffffffff80205693:	c9                   	leave  
ffffffff80205694:	c3                   	ret    

ffffffff80205695 <_ZL3inbt>:
ffffffff80205695:	55                   	push   %rbp
ffffffff80205696:	48 89 e5             	mov    %rsp,%rbp
ffffffff80205699:	48 83 ec 18          	sub    $0x18,%rsp
ffffffff8020569d:	89 f8                	mov    %edi,%eax
ffffffff8020569f:	66 89 45 ec          	mov    %ax,-0x14(%rbp)
ffffffff802056a3:	0f b7 45 ec          	movzwl -0x14(%rbp),%eax
ffffffff802056a7:	89 c2                	mov    %eax,%edx
ffffffff802056a9:	ec                   	in     (%dx),%al
ffffffff802056aa:	88 45 ff             	mov    %al,-0x1(%rbp)
ffffffff802056ad:	0f b6 45 ff          	movzbl -0x1(%rbp),%eax
ffffffff802056b1:	c9                   	leave  
ffffffff802056b2:	c3                   	ret    

ffffffff802056b3 <_ZL4outbth>:
ffffffff802056b3:	55                   	push   %rbp
ffffffff802056b4:	48 89 e5             	mov    %rsp,%rbp
ffffffff802056b7:	48 83 ec 08          	sub    $0x8,%rsp
ffffffff802056bb:	89 f8                	mov    %edi,%eax
ffffffff802056bd:	89 f2                	mov    %esi,%edx
ffffffff802056bf:	66 89 45 fc          	mov    %ax,-0x4(%rbp)
ffffffff802056c3:	89 d0                	mov    %edx,%eax
ffffffff802056c5:	88 45 f8             	mov    %al,-0x8(%rbp)
ffffffff802056c8:	0f b6 45 f8          	movzbl -0x8(%rbp),%eax
ffffffff802056cc:	0f b7 55 fc          	movzwl -0x4(%rbp),%edx
ffffffff802056d0:	ee                   	out    %al,(%dx)
ffffffff802056d1:	90                   	nop
ffffffff802056d2:	c9                   	leave  
ffffffff802056d3:	c3                   	ret    

ffffffff802056d4 <_Z12ReadRegisterh>:
ffffffff802056d4:	f3 0f 1e fa          	endbr64 
ffffffff802056d8:	55                   	push   %rbp
ffffffff802056d9:	48 89 e5             	mov    %rsp,%rbp
ffffffff802056dc:	48 83 ec 08          	sub    $0x8,%rsp
ffffffff802056e0:	89 f8                	mov    %edi,%eax
ffffffff802056e2:	88 45 fc             	mov    %al,-0x4(%rbp)
ffffffff802056e5:	0f b6 45 fc          	movzbl -0x4(%rbp),%eax
ffffffff802056e9:	89 c6                	mov    %eax,%esi
ffffffff802056eb:	bf 70 00 00 00       	mov    $0x70,%edi
ffffffff802056f0:	e8 be ff ff ff       	call   ffffffff802056b3 <_ZL4outbth>
ffffffff802056f5:	bf 71 00 00 00       	mov    $0x71,%edi
ffffffff802056fa:	e8 96 ff ff ff       	call   ffffffff80205695 <_ZL3inbt>
ffffffff802056ff:	c9                   	leave  
ffffffff80205700:	c3                   	ret    

ffffffff80205701 <_Z16UpdateInProgressv>:
ffffffff80205701:	f3 0f 1e fa          	endbr64 
ffffffff80205705:	55                   	push   %rbp
ffffffff80205706:	48 89 e5             	mov    %rsp,%rbp
ffffffff80205709:	be 0a 00 00 00       	mov    $0xa,%esi
ffffffff8020570e:	bf 70 00 00 00       	mov    $0x70,%edi
ffffffff80205713:	e8 9b ff ff ff       	call   ffffffff802056b3 <_ZL4outbth>
ffffffff80205718:	bf 71 00 00 00       	mov    $0x71,%edi
ffffffff8020571d:	e8 73 ff ff ff       	call   ffffffff80205695 <_ZL3inbt>
ffffffff80205722:	0f b6 c0             	movzbl %al,%eax
ffffffff80205725:	25 80 00 00 00       	and    $0x80,%eax
ffffffff8020572a:	5d                   	pop    %rbp
ffffffff8020572b:	c3                   	ret    

ffffffff8020572c <_ZN13RealTimeClock8ReadTimeEv>:
ffffffff8020572c:	f3 0f 1e fa          	endbr64 
ffffffff80205730:	55                   	push   %rbp
ffffffff80205731:	48 89 e5             	mov    %rsp,%rbp
ffffffff80205734:	48 83 ec 20          	sub    $0x20,%rsp
ffffffff80205738:	90                   	nop
ffffffff80205739:	e8 c3 ff ff ff       	call   ffffffff80205701 <_Z16UpdateInProgressv>
ffffffff8020573e:	85 c0                	test   %eax,%eax
ffffffff80205740:	0f 95 c0             	setne  %al
ffffffff80205743:	84 c0                	test   %al,%al
ffffffff80205745:	75 f2                	jne    ffffffff80205739 <_ZN13RealTimeClock8ReadTimeEv+0xd>
ffffffff80205747:	bf 00 00 00 00       	mov    $0x0,%edi
ffffffff8020574c:	e8 83 ff ff ff       	call   ffffffff802056d4 <_Z12ReadRegisterh>
ffffffff80205751:	88 45 e0             	mov    %al,-0x20(%rbp)
ffffffff80205754:	bf 02 00 00 00       	mov    $0x2,%edi
ffffffff80205759:	e8 76 ff ff ff       	call   ffffffff802056d4 <_Z12ReadRegisterh>
ffffffff8020575e:	88 45 e1             	mov    %al,-0x1f(%rbp)
ffffffff80205761:	bf 04 00 00 00       	mov    $0x4,%edi
ffffffff80205766:	e8 69 ff ff ff       	call   ffffffff802056d4 <_Z12ReadRegisterh>
ffffffff8020576b:	88 45 e2             	mov    %al,-0x1e(%rbp)
ffffffff8020576e:	bf 06 00 00 00       	mov    $0x6,%edi
ffffffff80205773:	e8 5c ff ff ff       	call   ffffffff802056d4 <_Z12ReadRegisterh>
ffffffff80205778:	88 45 e3             	mov    %al,-0x1d(%rbp)
ffffffff8020577b:	bf 07 00 00 00       	mov    $0x7,%edi
ffffffff80205780:	e8 4f ff ff ff       	call   ffffffff802056d4 <_Z12ReadRegisterh>
ffffffff80205785:	88 45 e4             	mov    %al,-0x1c(%rbp)
ffffffff80205788:	bf 08 00 00 00       	mov    $0x8,%edi
ffffffff8020578d:	e8 42 ff ff ff       	call   ffffffff802056d4 <_Z12ReadRegisterh>
ffffffff80205792:	88 45 e5             	mov    %al,-0x1b(%rbp)
ffffffff80205795:	bf 09 00 00 00       	mov    $0x9,%edi
ffffffff8020579a:	e8 35 ff ff ff       	call   ffffffff802056d4 <_Z12ReadRegisterh>
ffffffff8020579f:	0f b6 c0             	movzbl %al,%eax
ffffffff802057a2:	89 45 e8             	mov    %eax,-0x18(%rbp)
ffffffff802057a5:	bf 32 00 00 00       	mov    $0x32,%edi
ffffffff802057aa:	e8 25 ff ff ff       	call   ffffffff802056d4 <_Z12ReadRegisterh>
ffffffff802057af:	88 45 ec             	mov    %al,-0x14(%rbp)
ffffffff802057b2:	bf 0b 00 00 00       	mov    $0xb,%edi
ffffffff802057b7:	e8 18 ff ff ff       	call   ffffffff802056d4 <_Z12ReadRegisterh>
ffffffff802057bc:	88 45 ff             	mov    %al,-0x1(%rbp)
ffffffff802057bf:	0f b6 45 ff          	movzbl -0x1(%rbp),%eax
ffffffff802057c3:	83 e0 04             	and    $0x4,%eax
ffffffff802057c6:	85 c0                	test   %eax,%eax
ffffffff802057c8:	0f 85 cc 00 00 00    	jne    ffffffff8020589a <_ZN13RealTimeClock8ReadTimeEv+0x16e>
ffffffff802057ce:	0f b6 45 e0          	movzbl -0x20(%rbp),%eax
ffffffff802057d2:	83 e0 0f             	and    $0xf,%eax
ffffffff802057d5:	89 c1                	mov    %eax,%ecx
ffffffff802057d7:	0f b6 45 e0          	movzbl -0x20(%rbp),%eax
ffffffff802057db:	c0 e8 04             	shr    $0x4,%al
ffffffff802057de:	89 c2                	mov    %eax,%edx
ffffffff802057e0:	89 d0                	mov    %edx,%eax
ffffffff802057e2:	c1 e0 02             	shl    $0x2,%eax
ffffffff802057e5:	01 d0                	add    %edx,%eax
ffffffff802057e7:	01 c0                	add    %eax,%eax
ffffffff802057e9:	01 c8                	add    %ecx,%eax
ffffffff802057eb:	88 45 e0             	mov    %al,-0x20(%rbp)
ffffffff802057ee:	0f b6 45 e1          	movzbl -0x1f(%rbp),%eax
ffffffff802057f2:	83 e0 0f             	and    $0xf,%eax
ffffffff802057f5:	89 c1                	mov    %eax,%ecx
ffffffff802057f7:	0f b6 45 e1          	movzbl -0x1f(%rbp),%eax
ffffffff802057fb:	c0 e8 04             	shr    $0x4,%al
ffffffff802057fe:	89 c2                	mov    %eax,%edx
ffffffff80205800:	89 d0                	mov    %edx,%eax
ffffffff80205802:	c1 e0 02             	shl    $0x2,%eax
ffffffff80205805:	01 d0                	add    %edx,%eax
ffffffff80205807:	01 c0                	add    %eax,%eax
ffffffff80205809:	01 c8                	add    %ecx,%eax
ffffffff8020580b:	88 45 e1             	mov    %al,-0x1f(%rbp)
ffffffff8020580e:	0f b6 45 e2          	movzbl -0x1e(%rbp),%eax
ffffffff80205812:	83 e0 0f             	and    $0xf,%eax
ffffffff80205815:	89 c1                	mov    %eax,%ecx
ffffffff80205817:	0f b6 45 e2          	movzbl -0x1e(%rbp),%eax
ffffffff8020581b:	83 e0 70             	and    $0x70,%eax
ffffffff8020581e:	c0 e8 04             	shr    $0x4,%al
ffffffff80205821:	89 c2                	mov    %eax,%edx
ffffffff80205823:	89 d0                	mov    %edx,%eax
ffffffff80205825:	c1 e0 02             	shl    $0x2,%eax
ffffffff80205828:	01 d0                	add    %edx,%eax
ffffffff8020582a:	01 c0                	add    %eax,%eax
ffffffff8020582c:	01 c8                	add    %ecx,%eax
ffffffff8020582e:	89 c2                	mov    %eax,%edx
ffffffff80205830:	0f b6 45 e2          	movzbl -0x1e(%rbp),%eax
ffffffff80205834:	83 e0 80             	and    $0xffffff80,%eax
ffffffff80205837:	09 d0                	or     %edx,%eax
ffffffff80205839:	88 45 e2             	mov    %al,-0x1e(%rbp)
ffffffff8020583c:	0f b6 45 e4          	movzbl -0x1c(%rbp),%eax
ffffffff80205840:	83 e0 0f             	and    $0xf,%eax
ffffffff80205843:	89 c1                	mov    %eax,%ecx
ffffffff80205845:	0f b6 45 e4          	movzbl -0x1c(%rbp),%eax
ffffffff80205849:	c0 e8 04             	shr    $0x4,%al
ffffffff8020584c:	89 c2                	mov    %eax,%edx
ffffffff8020584e:	89 d0                	mov    %edx,%eax
ffffffff80205850:	c1 e0 02             	shl    $0x2,%eax
ffffffff80205853:	01 d0                	add    %edx,%eax
ffffffff80205855:	01 c0                	add    %eax,%eax
ffffffff80205857:	01 c8                	add    %ecx,%eax
ffffffff80205859:	88 45 e4             	mov    %al,-0x1c(%rbp)
ffffffff8020585c:	0f b6 45 e5          	movzbl -0x1b(%rbp),%eax
ffffffff80205860:	83 e0 0f             	and    $0xf,%eax
ffffffff80205863:	89 c1                	mov    %eax,%ecx
ffffffff80205865:	0f b6 45 e5          	movzbl -0x1b(%rbp),%eax
ffffffff80205869:	c0 e8 04             	shr    $0x4,%al
ffffffff8020586c:	89 c2                	mov    %eax,%edx
ffffffff8020586e:	89 d0                	mov    %edx,%eax
ffffffff80205870:	c1 e0 02             	shl    $0x2,%eax
ffffffff80205873:	01 d0                	add    %edx,%eax
ffffffff80205875:	01 c0                	add    %eax,%eax
ffffffff80205877:	01 c8                	add    %ecx,%eax
ffffffff80205879:	88 45 e5             	mov    %al,-0x1b(%rbp)
ffffffff8020587c:	8b 45 e8             	mov    -0x18(%rbp),%eax
ffffffff8020587f:	83 e0 0f             	and    $0xf,%eax
ffffffff80205882:	89 c1                	mov    %eax,%ecx
ffffffff80205884:	8b 45 e8             	mov    -0x18(%rbp),%eax
ffffffff80205887:	c1 e8 04             	shr    $0x4,%eax
ffffffff8020588a:	89 c2                	mov    %eax,%edx
ffffffff8020588c:	89 d0                	mov    %edx,%eax
ffffffff8020588e:	c1 e0 02             	shl    $0x2,%eax
ffffffff80205891:	01 d0                	add    %edx,%eax
ffffffff80205893:	01 c0                	add    %eax,%eax
ffffffff80205895:	01 c8                	add    %ecx,%eax
ffffffff80205897:	89 45 e8             	mov    %eax,-0x18(%rbp)
ffffffff8020589a:	0f b6 45 ff          	movzbl -0x1(%rbp),%eax
ffffffff8020589e:	83 e0 02             	and    $0x2,%eax
ffffffff802058a1:	85 c0                	test   %eax,%eax
ffffffff802058a3:	75 41                	jne    ffffffff802058e6 <_ZN13RealTimeClock8ReadTimeEv+0x1ba>
ffffffff802058a5:	0f b6 45 e2          	movzbl -0x1e(%rbp),%eax
ffffffff802058a9:	84 c0                	test   %al,%al
ffffffff802058ab:	79 39                	jns    ffffffff802058e6 <_ZN13RealTimeClock8ReadTimeEv+0x1ba>
ffffffff802058ad:	0f b6 45 e2          	movzbl -0x1e(%rbp),%eax
ffffffff802058b1:	0f b6 c0             	movzbl %al,%eax
ffffffff802058b4:	83 e0 7f             	and    $0x7f,%eax
ffffffff802058b7:	8d 50 0c             	lea    0xc(%rax),%edx
ffffffff802058ba:	48 63 c2             	movslq %edx,%rax
ffffffff802058bd:	48 69 c0 ab aa aa 2a 	imul   $0x2aaaaaab,%rax,%rax
ffffffff802058c4:	48 c1 e8 20          	shr    $0x20,%rax
ffffffff802058c8:	c1 f8 02             	sar    $0x2,%eax
ffffffff802058cb:	89 d6                	mov    %edx,%esi
ffffffff802058cd:	c1 fe 1f             	sar    $0x1f,%esi
ffffffff802058d0:	29 f0                	sub    %esi,%eax
ffffffff802058d2:	89 c1                	mov    %eax,%ecx
ffffffff802058d4:	89 c8                	mov    %ecx,%eax
ffffffff802058d6:	01 c0                	add    %eax,%eax
ffffffff802058d8:	01 c8                	add    %ecx,%eax
ffffffff802058da:	c1 e0 03             	shl    $0x3,%eax
ffffffff802058dd:	89 d1                	mov    %edx,%ecx
ffffffff802058df:	29 c1                	sub    %eax,%ecx
ffffffff802058e1:	89 c8                	mov    %ecx,%eax
ffffffff802058e3:	88 45 e2             	mov    %al,-0x1e(%rbp)
ffffffff802058e6:	48 8b 45 e0          	mov    -0x20(%rbp),%rax
ffffffff802058ea:	48 8b 55 e8          	mov    -0x18(%rbp),%rdx
ffffffff802058ee:	c9                   	leave  
ffffffff802058ef:	c3                   	ret    

ffffffff802058f0 <_ZN9Scheduler10InitializeEv>:
ffffffff802058f0:	f3 0f 1e fa          	endbr64 
ffffffff802058f4:	55                   	push   %rbp
ffffffff802058f5:	48 89 e5             	mov    %rsp,%rbp
ffffffff802058f8:	48 c7 05 8d 42 01 00 	movq   $0x0,0x1428d(%rip)        # ffffffff80219b90 <head>
ffffffff802058ff:	00 00 00 00 
ffffffff80205903:	48 8b 05 86 42 01 00 	mov    0x14286(%rip),%rax        # ffffffff80219b90 <head>
ffffffff8020590a:	48 89 05 8f 42 01 00 	mov    %rax,0x1428f(%rip)        # ffffffff80219ba0 <cur_thread>
ffffffff80205911:	c6 05 90 42 01 00 01 	movb   $0x1,0x14290(%rip)        # ffffffff80219ba8 <inited>
ffffffff80205918:	90                   	nop
ffffffff80205919:	5d                   	pop    %rbp
ffffffff8020591a:	c3                   	ret    

ffffffff8020591b <_ZN9Scheduler9AddThreadEm>:
ffffffff8020591b:	f3 0f 1e fa          	endbr64 
ffffffff8020591f:	55                   	push   %rbp
ffffffff80205920:	48 89 e5             	mov    %rsp,%rbp
ffffffff80205923:	48 83 ec 20          	sub    $0x20,%rsp
ffffffff80205927:	48 89 7d e8          	mov    %rdi,-0x18(%rbp)
ffffffff8020592b:	48 8b 45 e8          	mov    -0x18(%rbp),%rax
ffffffff8020592f:	48 89 c7             	mov    %rax,%rdi
ffffffff80205932:	e8 3a 02 00 00       	call   ffffffff80205b71 <_Z12CreateThreadm>
ffffffff80205937:	48 89 45 f8          	mov    %rax,-0x8(%rbp)
ffffffff8020593b:	48 8b 05 4e 42 01 00 	mov    0x1424e(%rip),%rax        # ffffffff80219b90 <head>
ffffffff80205942:	48 85 c0             	test   %rax,%rax
ffffffff80205945:	75 0b                	jne    ffffffff80205952 <_ZN9Scheduler9AddThreadEm+0x37>
ffffffff80205947:	48 8b 45 f8          	mov    -0x8(%rbp),%rax
ffffffff8020594b:	48 89 05 3e 42 01 00 	mov    %rax,0x1423e(%rip)        # ffffffff80219b90 <head>
ffffffff80205952:	48 8b 05 3f 42 01 00 	mov    0x1423f(%rip),%rax        # ffffffff80219b98 <tail>
ffffffff80205959:	48 85 c0             	test   %rax,%rax
ffffffff8020595c:	74 0f                	je     ffffffff8020596d <_ZN9Scheduler9AddThreadEm+0x52>
ffffffff8020595e:	48 8b 05 33 42 01 00 	mov    0x14233(%rip),%rax        # ffffffff80219b98 <tail>
ffffffff80205965:	48 8b 55 f8          	mov    -0x8(%rbp),%rdx
ffffffff80205969:	48 89 50 08          	mov    %rdx,0x8(%rax)
ffffffff8020596d:	48 8b 45 f8          	mov    -0x8(%rbp),%rax
ffffffff80205971:	48 89 05 20 42 01 00 	mov    %rax,0x14220(%rip)        # ffffffff80219b98 <tail>
ffffffff80205978:	90                   	nop
ffffffff80205979:	c9                   	leave  
ffffffff8020597a:	c3                   	ret    

ffffffff8020597b <_Z11SchedMemcpyPvS_m>:
ffffffff8020597b:	f3 0f 1e fa          	endbr64 
ffffffff8020597f:	55                   	push   %rbp
ffffffff80205980:	48 89 e5             	mov    %rsp,%rbp
ffffffff80205983:	48 83 ec 38          	sub    $0x38,%rsp
ffffffff80205987:	48 89 7d d8          	mov    %rdi,-0x28(%rbp)
ffffffff8020598b:	48 89 75 d0          	mov    %rsi,-0x30(%rbp)
ffffffff8020598f:	48 89 55 c8          	mov    %rdx,-0x38(%rbp)
ffffffff80205993:	48 8b 45 d8          	mov    -0x28(%rbp),%rax
ffffffff80205997:	48 89 45 f0          	mov    %rax,-0x10(%rbp)
ffffffff8020599b:	48 8b 45 d0          	mov    -0x30(%rbp),%rax
ffffffff8020599f:	48 89 45 e8          	mov    %rax,-0x18(%rbp)
ffffffff802059a3:	48 c7 45 f8 00 00 00 	movq   $0x0,-0x8(%rbp)
ffffffff802059aa:	00 
ffffffff802059ab:	eb 20                	jmp    ffffffff802059cd <_Z11SchedMemcpyPvS_m+0x52>
ffffffff802059ad:	48 8b 55 e8          	mov    -0x18(%rbp),%rdx
ffffffff802059b1:	48 8b 45 f8          	mov    -0x8(%rbp),%rax
ffffffff802059b5:	48 01 d0             	add    %rdx,%rax
ffffffff802059b8:	48 8b 4d f0          	mov    -0x10(%rbp),%rcx
ffffffff802059bc:	48 8b 55 f8          	mov    -0x8(%rbp),%rdx
ffffffff802059c0:	48 01 ca             	add    %rcx,%rdx
ffffffff802059c3:	0f b6 00             	movzbl (%rax),%eax
ffffffff802059c6:	88 02                	mov    %al,(%rdx)
ffffffff802059c8:	48 83 45 f8 01       	addq   $0x1,-0x8(%rbp)
ffffffff802059cd:	48 8b 45 f8          	mov    -0x8(%rbp),%rax
ffffffff802059d1:	48 3b 45 c8          	cmp    -0x38(%rbp),%rax
ffffffff802059d5:	72 d6                	jb     ffffffff802059ad <_Z11SchedMemcpyPvS_m+0x32>
ffffffff802059d7:	90                   	nop
ffffffff802059d8:	90                   	nop
ffffffff802059d9:	c9                   	leave  
ffffffff802059da:	c3                   	ret    

ffffffff802059db <_Z7GetNextv>:
ffffffff802059db:	f3 0f 1e fa          	endbr64 
ffffffff802059df:	55                   	push   %rbp
ffffffff802059e0:	48 89 e5             	mov    %rsp,%rbp
ffffffff802059e3:	48 8b 05 b6 41 01 00 	mov    0x141b6(%rip),%rax        # ffffffff80219ba0 <cur_thread>
ffffffff802059ea:	48 8b 40 08          	mov    0x8(%rax),%rax
ffffffff802059ee:	48 85 c0             	test   %rax,%rax
ffffffff802059f1:	74 1b                	je     ffffffff80205a0e <_Z7GetNextv+0x33>
ffffffff802059f3:	48 8b 05 a6 41 01 00 	mov    0x141a6(%rip),%rax        # ffffffff80219ba0 <cur_thread>
ffffffff802059fa:	48 8b 40 08          	mov    0x8(%rax),%rax
ffffffff802059fe:	48 89 05 9b 41 01 00 	mov    %rax,0x1419b(%rip)        # ffffffff80219ba0 <cur_thread>
ffffffff80205a05:	48 8b 05 94 41 01 00 	mov    0x14194(%rip),%rax        # ffffffff80219ba0 <cur_thread>
ffffffff80205a0c:	eb 15                	jmp    ffffffff80205a23 <_Z7GetNextv+0x48>
ffffffff80205a0e:	48 8b 05 7b 41 01 00 	mov    0x1417b(%rip),%rax        # ffffffff80219b90 <head>
ffffffff80205a15:	48 89 05 84 41 01 00 	mov    %rax,0x14184(%rip)        # ffffffff80219ba0 <cur_thread>
ffffffff80205a1c:	48 8b 05 7d 41 01 00 	mov    0x1417d(%rip),%rax        # ffffffff80219ba0 <cur_thread>
ffffffff80205a23:	5d                   	pop    %rbp
ffffffff80205a24:	c3                   	ret    

ffffffff80205a25 <_ZN9Scheduler4TickEPN3IDT11registers_tE>:
ffffffff80205a25:	f3 0f 1e fa          	endbr64 
ffffffff80205a29:	55                   	push   %rbp
ffffffff80205a2a:	48 89 e5             	mov    %rsp,%rbp
ffffffff80205a2d:	48 83 ec 20          	sub    $0x20,%rsp
ffffffff80205a31:	48 89 7d e8          	mov    %rdi,-0x18(%rbp)
ffffffff80205a35:	0f b6 05 6c 41 01 00 	movzbl 0x1416c(%rip),%eax        # ffffffff80219ba8 <inited>
ffffffff80205a3c:	83 f0 01             	xor    $0x1,%eax
ffffffff80205a3f:	84 c0                	test   %al,%al
ffffffff80205a41:	74 06                	je     ffffffff80205a49 <_ZN9Scheduler4TickEPN3IDT11registers_tE+0x24>
ffffffff80205a43:	48 8b 45 e8          	mov    -0x18(%rbp),%rax
ffffffff80205a47:	eb 75                	jmp    ffffffff80205abe <_ZN9Scheduler4TickEPN3IDT11registers_tE+0x99>
ffffffff80205a49:	48 8b 05 40 41 01 00 	mov    0x14140(%rip),%rax        # ffffffff80219b90 <head>
ffffffff80205a50:	48 85 c0             	test   %rax,%rax
ffffffff80205a53:	75 06                	jne    ffffffff80205a5b <_ZN9Scheduler4TickEPN3IDT11registers_tE+0x36>
ffffffff80205a55:	48 8b 45 e8          	mov    -0x18(%rbp),%rax
ffffffff80205a59:	eb 63                	jmp    ffffffff80205abe <_ZN9Scheduler4TickEPN3IDT11registers_tE+0x99>
ffffffff80205a5b:	48 c7 c7 05 13 20 80 	mov    $0xffffffff80201305,%rdi
ffffffff80205a62:	b8 00 00 00 00       	mov    $0x0,%eax
ffffffff80205a67:	e8 3e 0a 00 00       	call   ffffffff802064aa <_ZN3VGA12print_formatEPKcz>
ffffffff80205a6c:	48 8b 05 2d 41 01 00 	mov    0x1412d(%rip),%rax        # ffffffff80219ba0 <cur_thread>
ffffffff80205a73:	48 8d 48 10          	lea    0x10(%rax),%rcx
ffffffff80205a77:	48 8b 45 e8          	mov    -0x18(%rbp),%rax
ffffffff80205a7b:	ba 78 00 00 00       	mov    $0x78,%edx
ffffffff80205a80:	48 89 c6             	mov    %rax,%rsi
ffffffff80205a83:	48 89 cf             	mov    %rcx,%rdi
ffffffff80205a86:	e8 f0 fe ff ff       	call   ffffffff8020597b <_Z11SchedMemcpyPvS_m>
ffffffff80205a8b:	e8 4b ff ff ff       	call   ffffffff802059db <_Z7GetNextv>
ffffffff80205a90:	48 89 45 f8          	mov    %rax,-0x8(%rbp)
ffffffff80205a94:	48 8b 45 f8          	mov    -0x8(%rbp),%rax
ffffffff80205a98:	48 8d 48 10          	lea    0x10(%rax),%rcx
ffffffff80205a9c:	48 8b 45 e8          	mov    -0x18(%rbp),%rax
ffffffff80205aa0:	ba 78 00 00 00       	mov    $0x78,%edx
ffffffff80205aa5:	48 89 ce             	mov    %rcx,%rsi
ffffffff80205aa8:	48 89 c7             	mov    %rax,%rdi
ffffffff80205aab:	e8 cb fe ff ff       	call   ffffffff8020597b <_Z11SchedMemcpyPvS_m>
ffffffff80205ab0:	48 8b 45 f8          	mov    -0x8(%rbp),%rax
ffffffff80205ab4:	48 8b 00             	mov    (%rax),%rax
ffffffff80205ab7:	0f 22 d8             	mov    %rax,%cr3
ffffffff80205aba:	48 8b 45 e8          	mov    -0x18(%rbp),%rax
ffffffff80205abe:	c9                   	leave  
ffffffff80205abf:	c3                   	ret    

ffffffff80205ac0 <_ZN8SpinlockC1Ev>:
ffffffff80205ac0:	f3 0f 1e fa          	endbr64 
ffffffff80205ac4:	55                   	push   %rbp
ffffffff80205ac5:	48 89 e5             	mov    %rsp,%rbp
ffffffff80205ac8:	48 83 ec 10          	sub    $0x10,%rsp
ffffffff80205acc:	48 89 7d f8          	mov    %rdi,-0x8(%rbp)
ffffffff80205ad0:	48 8b 45 f8          	mov    -0x8(%rbp),%rax
ffffffff80205ad4:	48 89 c7             	mov    %rax,%rdi
ffffffff80205ad7:	e8 28 00 00 00       	call   ffffffff80205b04 <_ZN8Spinlock7ReleaseEv>
ffffffff80205adc:	90                   	nop
ffffffff80205add:	c9                   	leave  
ffffffff80205ade:	c3                   	ret    
ffffffff80205adf:	90                   	nop

ffffffff80205ae0 <_ZN8Spinlock4LockEv>:
ffffffff80205ae0:	f3 0f 1e fa          	endbr64 
ffffffff80205ae4:	55                   	push   %rbp
ffffffff80205ae5:	48 89 e5             	mov    %rsp,%rbp
ffffffff80205ae8:	48 83 ec 08          	sub    $0x8,%rsp
ffffffff80205aec:	48 89 7d f8          	mov    %rdi,-0x8(%rbp)
ffffffff80205af0:	90                   	nop
ffffffff80205af1:	48 8b 55 f8          	mov    -0x8(%rbp),%rdx
ffffffff80205af5:	b8 01 00 00 00       	mov    $0x1,%eax
ffffffff80205afa:	86 02                	xchg   %al,(%rdx)
ffffffff80205afc:	84 c0                	test   %al,%al
ffffffff80205afe:	75 f1                	jne    ffffffff80205af1 <_ZN8Spinlock4LockEv+0x11>
ffffffff80205b00:	90                   	nop
ffffffff80205b01:	90                   	nop
ffffffff80205b02:	c9                   	leave  
ffffffff80205b03:	c3                   	ret    

ffffffff80205b04 <_ZN8Spinlock7ReleaseEv>:
ffffffff80205b04:	f3 0f 1e fa          	endbr64 
ffffffff80205b08:	55                   	push   %rbp
ffffffff80205b09:	48 89 e5             	mov    %rsp,%rbp
ffffffff80205b0c:	48 83 ec 08          	sub    $0x8,%rsp
ffffffff80205b10:	48 89 7d f8          	mov    %rdi,-0x8(%rbp)
ffffffff80205b14:	48 8b 45 f8          	mov    -0x8(%rbp),%rax
ffffffff80205b18:	ba 00 00 00 00       	mov    $0x0,%edx
ffffffff80205b1d:	88 10                	mov    %dl,(%rax)
ffffffff80205b1f:	90                   	nop
ffffffff80205b20:	c9                   	leave  
ffffffff80205b21:	c3                   	ret    

ffffffff80205b22 <_Z6memsetPvcm>:
ffffffff80205b22:	f3 0f 1e fa          	endbr64 
ffffffff80205b26:	55                   	push   %rbp
ffffffff80205b27:	48 89 e5             	mov    %rsp,%rbp
ffffffff80205b2a:	48 83 ec 28          	sub    $0x28,%rsp
ffffffff80205b2e:	48 89 7d e8          	mov    %rdi,-0x18(%rbp)
ffffffff80205b32:	89 f0                	mov    %esi,%eax
ffffffff80205b34:	48 89 55 d8          	mov    %rdx,-0x28(%rbp)
ffffffff80205b38:	88 45 e4             	mov    %al,-0x1c(%rbp)
ffffffff80205b3b:	48 8b 45 e8          	mov    -0x18(%rbp),%rax
ffffffff80205b3f:	48 89 45 f0          	mov    %rax,-0x10(%rbp)
ffffffff80205b43:	48 c7 45 f8 00 00 00 	movq   $0x0,-0x8(%rbp)
ffffffff80205b4a:	00 
ffffffff80205b4b:	eb 16                	jmp    ffffffff80205b63 <_Z6memsetPvcm+0x41>
ffffffff80205b4d:	48 8b 55 f0          	mov    -0x10(%rbp),%rdx
ffffffff80205b51:	48 8b 45 f8          	mov    -0x8(%rbp),%rax
ffffffff80205b55:	48 01 c2             	add    %rax,%rdx
ffffffff80205b58:	0f b6 45 e4          	movzbl -0x1c(%rbp),%eax
ffffffff80205b5c:	88 02                	mov    %al,(%rdx)
ffffffff80205b5e:	48 83 45 f8 01       	addq   $0x1,-0x8(%rbp)
ffffffff80205b63:	48 8b 45 f8          	mov    -0x8(%rbp),%rax
ffffffff80205b67:	48 3b 45 d8          	cmp    -0x28(%rbp),%rax
ffffffff80205b6b:	72 e0                	jb     ffffffff80205b4d <_Z6memsetPvcm+0x2b>
ffffffff80205b6d:	90                   	nop
ffffffff80205b6e:	90                   	nop
ffffffff80205b6f:	c9                   	leave  
ffffffff80205b70:	c3                   	ret    

ffffffff80205b71 <_Z12CreateThreadm>:
ffffffff80205b71:	f3 0f 1e fa          	endbr64 
ffffffff80205b75:	55                   	push   %rbp
ffffffff80205b76:	48 89 e5             	mov    %rsp,%rbp
ffffffff80205b79:	48 83 ec 20          	sub    $0x20,%rsp
ffffffff80205b7d:	48 89 7d e8          	mov    %rdi,-0x18(%rbp)
ffffffff80205b81:	bf 88 00 00 00       	mov    $0x88,%edi
ffffffff80205b86:	e8 ee e3 ff ff       	call   ffffffff80203f79 <_Znwm>
ffffffff80205b8b:	49 89 c0             	mov    %rax,%r8
ffffffff80205b8e:	4c 89 c6             	mov    %r8,%rsi
ffffffff80205b91:	b8 00 00 00 00       	mov    $0x0,%eax
ffffffff80205b96:	ba 11 00 00 00       	mov    $0x11,%edx
ffffffff80205b9b:	48 89 f7             	mov    %rsi,%rdi
ffffffff80205b9e:	48 89 d1             	mov    %rdx,%rcx
ffffffff80205ba1:	f3 48 ab             	rep stos %rax,%es:(%rdi)
ffffffff80205ba4:	4c 89 45 f8          	mov    %r8,-0x8(%rbp)
ffffffff80205ba8:	48 8b 45 f8          	mov    -0x8(%rbp),%rax
ffffffff80205bac:	ba 08 00 00 00       	mov    $0x8,%edx
ffffffff80205bb1:	be 00 00 00 00       	mov    $0x0,%esi
ffffffff80205bb6:	48 89 c7             	mov    %rax,%rdi
ffffffff80205bb9:	e8 64 ff ff ff       	call   ffffffff80205b22 <_Z6memsetPvcm>
ffffffff80205bbe:	48 8b 45 f8          	mov    -0x8(%rbp),%rax
ffffffff80205bc2:	48 8b 55 e8          	mov    -0x18(%rbp),%rdx
ffffffff80205bc6:	48 89 50 60          	mov    %rdx,0x60(%rax)
ffffffff80205bca:	bf 00 40 00 00       	mov    $0x4000,%edi
ffffffff80205bcf:	e8 c3 e3 ff ff       	call   ffffffff80203f97 <_Znam>
ffffffff80205bd4:	48 89 c2             	mov    %rax,%rdx
ffffffff80205bd7:	48 8b 45 f8          	mov    -0x8(%rbp),%rax
ffffffff80205bdb:	48 89 50 78          	mov    %rdx,0x78(%rax)
ffffffff80205bdf:	48 8b 45 f8          	mov    -0x8(%rbp),%rax
ffffffff80205be3:	48 c7 40 08 00 00 00 	movq   $0x0,0x8(%rax)
ffffffff80205bea:	00 
ffffffff80205beb:	e8 2e 0b 00 00       	call   ffffffff8020671e <_ZN13VirtualMemory21CreateNewAddressSpaceEv>
ffffffff80205bf0:	48 8b 55 f8          	mov    -0x8(%rbp),%rdx
ffffffff80205bf4:	48 89 02             	mov    %rax,(%rdx)
ffffffff80205bf7:	48 8b 45 f8          	mov    -0x8(%rbp),%rax
ffffffff80205bfb:	48 c7 40 68 08 00 00 	movq   $0x8,0x68(%rax)
ffffffff80205c02:	00 
ffffffff80205c03:	48 8b 45 f8          	mov    -0x8(%rbp),%rax
ffffffff80205c07:	48 c7 80 80 00 00 00 	movq   $0x10,0x80(%rax)
ffffffff80205c0e:	10 00 00 00 
ffffffff80205c12:	48 8b 45 f8          	mov    -0x8(%rbp),%rax
ffffffff80205c16:	c9                   	leave  
ffffffff80205c17:	c3                   	ret    

ffffffff80205c18 <_ZL4outbth>:
ffffffff80205c18:	55                   	push   %rbp
ffffffff80205c19:	48 89 e5             	mov    %rsp,%rbp
ffffffff80205c1c:	48 83 ec 08          	sub    $0x8,%rsp
ffffffff80205c20:	89 f8                	mov    %edi,%eax
ffffffff80205c22:	89 f2                	mov    %esi,%edx
ffffffff80205c24:	66 89 45 fc          	mov    %ax,-0x4(%rbp)
ffffffff80205c28:	89 d0                	mov    %edx,%eax
ffffffff80205c2a:	88 45 f8             	mov    %al,-0x8(%rbp)
ffffffff80205c2d:	0f b6 45 f8          	movzbl -0x8(%rbp),%eax
ffffffff80205c31:	0f b7 55 fc          	movzwl -0x4(%rbp),%edx
ffffffff80205c35:	ee                   	out    %al,(%dx)
ffffffff80205c36:	90                   	nop
ffffffff80205c37:	c9                   	leave  
ffffffff80205c38:	c3                   	ret    

ffffffff80205c39 <_ZN3VGA4InitEv>:
ffffffff80205c39:	f3 0f 1e fa          	endbr64 
ffffffff80205c3d:	55                   	push   %rbp
ffffffff80205c3e:	48 89 e5             	mov    %rsp,%rbp
ffffffff80205c41:	48 c7 05 7c 3f 01 00 	movq   $0xb8000,0x13f7c(%rip)        # ffffffff80219bc8 <fb_ptr>
ffffffff80205c48:	00 80 0b 00 
ffffffff80205c4c:	66 c7 05 7d 3f 01 00 	movw   $0x0,0x13f7d(%rip)        # ffffffff80219bd2 <y>
ffffffff80205c53:	00 00 
ffffffff80205c55:	0f b7 05 76 3f 01 00 	movzwl 0x13f76(%rip),%eax        # ffffffff80219bd2 <y>
ffffffff80205c5c:	66 89 05 6d 3f 01 00 	mov    %ax,0x13f6d(%rip)        # ffffffff80219bd0 <x>
ffffffff80205c63:	90                   	nop
ffffffff80205c64:	5d                   	pop    %rbp
ffffffff80205c65:	c3                   	ret    

ffffffff80205c66 <_Z12SetCursorPosv>:
ffffffff80205c66:	f3 0f 1e fa          	endbr64 
ffffffff80205c6a:	55                   	push   %rbp
ffffffff80205c6b:	48 89 e5             	mov    %rsp,%rbp
ffffffff80205c6e:	48 83 ec 10          	sub    $0x10,%rsp
ffffffff80205c72:	0f b7 15 59 3f 01 00 	movzwl 0x13f59(%rip),%edx        # ffffffff80219bd2 <y>
ffffffff80205c79:	89 d0                	mov    %edx,%eax
ffffffff80205c7b:	c1 e0 02             	shl    $0x2,%eax
ffffffff80205c7e:	01 d0                	add    %edx,%eax
ffffffff80205c80:	c1 e0 04             	shl    $0x4,%eax
ffffffff80205c83:	89 c2                	mov    %eax,%edx
ffffffff80205c85:	0f b7 05 44 3f 01 00 	movzwl 0x13f44(%rip),%eax        # ffffffff80219bd0 <x>
ffffffff80205c8c:	01 d0                	add    %edx,%eax
ffffffff80205c8e:	66 89 45 fe          	mov    %ax,-0x2(%rbp)
ffffffff80205c92:	be 0f 00 00 00       	mov    $0xf,%esi
ffffffff80205c97:	bf d4 03 00 00       	mov    $0x3d4,%edi
ffffffff80205c9c:	e8 77 ff ff ff       	call   ffffffff80205c18 <_ZL4outbth>
ffffffff80205ca1:	0f b7 45 fe          	movzwl -0x2(%rbp),%eax
ffffffff80205ca5:	0f b6 c0             	movzbl %al,%eax
ffffffff80205ca8:	89 c6                	mov    %eax,%esi
ffffffff80205caa:	bf d5 03 00 00       	mov    $0x3d5,%edi
ffffffff80205caf:	e8 64 ff ff ff       	call   ffffffff80205c18 <_ZL4outbth>
ffffffff80205cb4:	be 0e 00 00 00       	mov    $0xe,%esi
ffffffff80205cb9:	bf d4 03 00 00       	mov    $0x3d4,%edi
ffffffff80205cbe:	e8 55 ff ff ff       	call   ffffffff80205c18 <_ZL4outbth>
ffffffff80205cc3:	0f b7 45 fe          	movzwl -0x2(%rbp),%eax
ffffffff80205cc7:	66 c1 e8 08          	shr    $0x8,%ax
ffffffff80205ccb:	0f b6 c0             	movzbl %al,%eax
ffffffff80205cce:	89 c6                	mov    %eax,%esi
ffffffff80205cd0:	bf d5 03 00 00       	mov    $0x3d5,%edi
ffffffff80205cd5:	e8 3e ff ff ff       	call   ffffffff80205c18 <_ZL4outbth>
ffffffff80205cda:	90                   	nop
ffffffff80205cdb:	c9                   	leave  
ffffffff80205cdc:	c3                   	ret    

ffffffff80205cdd <_Z6memcpyPvS_m>:
ffffffff80205cdd:	f3 0f 1e fa          	endbr64 
ffffffff80205ce1:	55                   	push   %rbp
ffffffff80205ce2:	48 89 e5             	mov    %rsp,%rbp
ffffffff80205ce5:	48 83 ec 38          	sub    $0x38,%rsp
ffffffff80205ce9:	48 89 7d d8          	mov    %rdi,-0x28(%rbp)
ffffffff80205ced:	48 89 75 d0          	mov    %rsi,-0x30(%rbp)
ffffffff80205cf1:	48 89 55 c8          	mov    %rdx,-0x38(%rbp)
ffffffff80205cf5:	48 8b 45 d8          	mov    -0x28(%rbp),%rax
ffffffff80205cf9:	48 89 45 f0          	mov    %rax,-0x10(%rbp)
ffffffff80205cfd:	48 8b 45 d0          	mov    -0x30(%rbp),%rax
ffffffff80205d01:	48 89 45 e8          	mov    %rax,-0x18(%rbp)
ffffffff80205d05:	48 c7 45 f8 00 00 00 	movq   $0x0,-0x8(%rbp)
ffffffff80205d0c:	00 
ffffffff80205d0d:	eb 20                	jmp    ffffffff80205d2f <_Z6memcpyPvS_m+0x52>
ffffffff80205d0f:	48 8b 55 e8          	mov    -0x18(%rbp),%rdx
ffffffff80205d13:	48 8b 45 f8          	mov    -0x8(%rbp),%rax
ffffffff80205d17:	48 01 d0             	add    %rdx,%rax
ffffffff80205d1a:	48 8b 4d f0          	mov    -0x10(%rbp),%rcx
ffffffff80205d1e:	48 8b 55 f8          	mov    -0x8(%rbp),%rdx
ffffffff80205d22:	48 01 ca             	add    %rcx,%rdx
ffffffff80205d25:	0f b6 00             	movzbl (%rax),%eax
ffffffff80205d28:	88 02                	mov    %al,(%rdx)
ffffffff80205d2a:	48 83 45 f8 01       	addq   $0x1,-0x8(%rbp)
ffffffff80205d2f:	48 8b 45 f8          	mov    -0x8(%rbp),%rax
ffffffff80205d33:	48 3b 45 c8          	cmp    -0x38(%rbp),%rax
ffffffff80205d37:	72 d6                	jb     ffffffff80205d0f <_Z6memcpyPvS_m+0x32>
ffffffff80205d39:	90                   	nop
ffffffff80205d3a:	90                   	nop
ffffffff80205d3b:	c9                   	leave  
ffffffff80205d3c:	c3                   	ret    

ffffffff80205d3d <_Z6memsetPcci>:
ffffffff80205d3d:	f3 0f 1e fa          	endbr64 
ffffffff80205d41:	55                   	push   %rbp
ffffffff80205d42:	48 89 e5             	mov    %rsp,%rbp
ffffffff80205d45:	48 83 ec 20          	sub    $0x20,%rsp
ffffffff80205d49:	48 89 7d e8          	mov    %rdi,-0x18(%rbp)
ffffffff80205d4d:	89 f0                	mov    %esi,%eax
ffffffff80205d4f:	89 55 e0             	mov    %edx,-0x20(%rbp)
ffffffff80205d52:	88 45 e4             	mov    %al,-0x1c(%rbp)
ffffffff80205d55:	c7 45 fc 00 00 00 00 	movl   $0x0,-0x4(%rbp)
ffffffff80205d5c:	eb 17                	jmp    ffffffff80205d75 <_Z6memsetPcci+0x38>
ffffffff80205d5e:	8b 45 fc             	mov    -0x4(%rbp),%eax
ffffffff80205d61:	48 63 d0             	movslq %eax,%rdx
ffffffff80205d64:	48 8b 45 e8          	mov    -0x18(%rbp),%rax
ffffffff80205d68:	48 01 c2             	add    %rax,%rdx
ffffffff80205d6b:	0f b6 45 e4          	movzbl -0x1c(%rbp),%eax
ffffffff80205d6f:	88 02                	mov    %al,(%rdx)
ffffffff80205d71:	83 45 fc 01          	addl   $0x1,-0x4(%rbp)
ffffffff80205d75:	8b 45 fc             	mov    -0x4(%rbp),%eax
ffffffff80205d78:	3b 45 e0             	cmp    -0x20(%rbp),%eax
ffffffff80205d7b:	7c e1                	jl     ffffffff80205d5e <_Z6memsetPcci+0x21>
ffffffff80205d7d:	90                   	nop
ffffffff80205d7e:	90                   	nop
ffffffff80205d7f:	c9                   	leave  
ffffffff80205d80:	c3                   	ret    

ffffffff80205d81 <_Z7memsetwPcti>:
ffffffff80205d81:	f3 0f 1e fa          	endbr64 
ffffffff80205d85:	55                   	push   %rbp
ffffffff80205d86:	48 89 e5             	mov    %rsp,%rbp
ffffffff80205d89:	48 83 ec 20          	sub    $0x20,%rsp
ffffffff80205d8d:	48 89 7d e8          	mov    %rdi,-0x18(%rbp)
ffffffff80205d91:	89 f0                	mov    %esi,%eax
ffffffff80205d93:	89 55 e0             	mov    %edx,-0x20(%rbp)
ffffffff80205d96:	66 89 45 e4          	mov    %ax,-0x1c(%rbp)
ffffffff80205d9a:	8b 45 e0             	mov    -0x20(%rbp),%eax
ffffffff80205d9d:	89 c2                	mov    %eax,%edx
ffffffff80205d9f:	c1 ea 1f             	shr    $0x1f,%edx
ffffffff80205da2:	01 d0                	add    %edx,%eax
ffffffff80205da4:	d1 f8                	sar    %eax
ffffffff80205da6:	89 45 e0             	mov    %eax,-0x20(%rbp)
ffffffff80205da9:	48 8b 45 e8          	mov    -0x18(%rbp),%rax
ffffffff80205dad:	48 89 45 f0          	mov    %rax,-0x10(%rbp)
ffffffff80205db1:	c7 45 fc 00 00 00 00 	movl   $0x0,-0x4(%rbp)
ffffffff80205db8:	eb 1b                	jmp    ffffffff80205dd5 <_Z7memsetwPcti+0x54>
ffffffff80205dba:	8b 45 fc             	mov    -0x4(%rbp),%eax
ffffffff80205dbd:	48 98                	cltq   
ffffffff80205dbf:	48 8d 14 00          	lea    (%rax,%rax,1),%rdx
ffffffff80205dc3:	48 8b 45 f0          	mov    -0x10(%rbp),%rax
ffffffff80205dc7:	48 01 c2             	add    %rax,%rdx
ffffffff80205dca:	0f b7 45 e4          	movzwl -0x1c(%rbp),%eax
ffffffff80205dce:	66 89 02             	mov    %ax,(%rdx)
ffffffff80205dd1:	83 45 fc 01          	addl   $0x1,-0x4(%rbp)
ffffffff80205dd5:	8b 45 fc             	mov    -0x4(%rbp),%eax
ffffffff80205dd8:	3b 45 e0             	cmp    -0x20(%rbp),%eax
ffffffff80205ddb:	7c dd                	jl     ffffffff80205dba <_Z7memsetwPcti+0x39>
ffffffff80205ddd:	90                   	nop
ffffffff80205dde:	90                   	nop
ffffffff80205ddf:	c9                   	leave  
ffffffff80205de0:	c3                   	ret    

ffffffff80205de1 <_Z6Scrollv>:
ffffffff80205de1:	f3 0f 1e fa          	endbr64 
ffffffff80205de5:	55                   	push   %rbp
ffffffff80205de6:	48 89 e5             	mov    %rsp,%rbp
ffffffff80205de9:	48 83 ec 20          	sub    $0x20,%rsp
ffffffff80205ded:	c7 45 fc 00 00 00 00 	movl   $0x0,-0x4(%rbp)
ffffffff80205df4:	eb 67                	jmp    ffffffff80205e5d <_Z6Scrollv+0x7c>
ffffffff80205df6:	c7 45 f8 00 00 00 00 	movl   $0x0,-0x8(%rbp)
ffffffff80205dfd:	eb 54                	jmp    ffffffff80205e53 <_Z6Scrollv+0x72>
ffffffff80205dff:	48 8b 0d c2 3d 01 00 	mov    0x13dc2(%rip),%rcx        # ffffffff80219bc8 <fb_ptr>
ffffffff80205e06:	8b 45 fc             	mov    -0x4(%rbp),%eax
ffffffff80205e09:	8d 50 01             	lea    0x1(%rax),%edx
ffffffff80205e0c:	89 d0                	mov    %edx,%eax
ffffffff80205e0e:	c1 e0 02             	shl    $0x2,%eax
ffffffff80205e11:	01 d0                	add    %edx,%eax
ffffffff80205e13:	c1 e0 04             	shl    $0x4,%eax
ffffffff80205e16:	89 c2                	mov    %eax,%edx
ffffffff80205e18:	8b 45 f8             	mov    -0x8(%rbp),%eax
ffffffff80205e1b:	01 d0                	add    %edx,%eax
ffffffff80205e1d:	48 98                	cltq   
ffffffff80205e1f:	48 01 c0             	add    %rax,%rax
ffffffff80205e22:	48 01 c1             	add    %rax,%rcx
ffffffff80205e25:	48 8b 35 9c 3d 01 00 	mov    0x13d9c(%rip),%rsi        # ffffffff80219bc8 <fb_ptr>
ffffffff80205e2c:	8b 55 fc             	mov    -0x4(%rbp),%edx
ffffffff80205e2f:	89 d0                	mov    %edx,%eax
ffffffff80205e31:	c1 e0 02             	shl    $0x2,%eax
ffffffff80205e34:	01 d0                	add    %edx,%eax
ffffffff80205e36:	c1 e0 04             	shl    $0x4,%eax
ffffffff80205e39:	89 c2                	mov    %eax,%edx
ffffffff80205e3b:	8b 45 f8             	mov    -0x8(%rbp),%eax
ffffffff80205e3e:	01 d0                	add    %edx,%eax
ffffffff80205e40:	48 98                	cltq   
ffffffff80205e42:	48 01 c0             	add    %rax,%rax
ffffffff80205e45:	48 8d 14 06          	lea    (%rsi,%rax,1),%rdx
ffffffff80205e49:	0f b7 01             	movzwl (%rcx),%eax
ffffffff80205e4c:	66 89 02             	mov    %ax,(%rdx)
ffffffff80205e4f:	83 45 f8 01          	addl   $0x1,-0x8(%rbp)
ffffffff80205e53:	83 7d f8 4f          	cmpl   $0x4f,-0x8(%rbp)
ffffffff80205e57:	7e a6                	jle    ffffffff80205dff <_Z6Scrollv+0x1e>
ffffffff80205e59:	83 45 fc 01          	addl   $0x1,-0x4(%rbp)
ffffffff80205e5d:	83 7d fc 17          	cmpl   $0x17,-0x4(%rbp)
ffffffff80205e61:	7e 93                	jle    ffffffff80205df6 <_Z6Scrollv+0x15>
ffffffff80205e63:	c7 45 f4 00 00 00 00 	movl   $0x0,-0xc(%rbp)
ffffffff80205e6a:	eb 38                	jmp    ffffffff80205ea4 <_Z6Scrollv+0xc3>
ffffffff80205e6c:	66 c7 45 f2 0f 00    	movw   $0xf,-0xe(%rbp)
ffffffff80205e72:	48 8b 15 4f 3d 01 00 	mov    0x13d4f(%rip),%rdx        # ffffffff80219bc8 <fb_ptr>
ffffffff80205e79:	8b 45 f4             	mov    -0xc(%rbp),%eax
ffffffff80205e7c:	05 80 07 00 00       	add    $0x780,%eax
ffffffff80205e81:	48 98                	cltq   
ffffffff80205e83:	48 01 c0             	add    %rax,%rax
ffffffff80205e86:	48 01 d0             	add    %rdx,%rax
ffffffff80205e89:	48 89 45 e8          	mov    %rax,-0x18(%rbp)
ffffffff80205e8d:	0f b7 45 f2          	movzwl -0xe(%rbp),%eax
ffffffff80205e91:	c1 e0 08             	shl    $0x8,%eax
ffffffff80205e94:	83 c8 20             	or     $0x20,%eax
ffffffff80205e97:	89 c2                	mov    %eax,%edx
ffffffff80205e99:	48 8b 45 e8          	mov    -0x18(%rbp),%rax
ffffffff80205e9d:	66 89 10             	mov    %dx,(%rax)
ffffffff80205ea0:	83 45 f4 01          	addl   $0x1,-0xc(%rbp)
ffffffff80205ea4:	83 7d f4 4f          	cmpl   $0x4f,-0xc(%rbp)
ffffffff80205ea8:	7e c2                	jle    ffffffff80205e6c <_Z6Scrollv+0x8b>
ffffffff80205eaa:	66 c7 05 1d 3d 01 00 	movw   $0x0,0x13d1d(%rip)        # ffffffff80219bd0 <x>
ffffffff80205eb1:	00 00 
ffffffff80205eb3:	66 c7 05 16 3d 01 00 	movw   $0x18,0x13d16(%rip)        # ffffffff80219bd2 <y>
ffffffff80205eba:	18 00 
ffffffff80205ebc:	90                   	nop
ffffffff80205ebd:	c9                   	leave  
ffffffff80205ebe:	c3                   	ret    

ffffffff80205ebf <_ZN3VGA4putcEc>:
ffffffff80205ebf:	f3 0f 1e fa          	endbr64 
ffffffff80205ec3:	55                   	push   %rbp
ffffffff80205ec4:	48 89 e5             	mov    %rsp,%rbp
ffffffff80205ec7:	48 83 ec 08          	sub    $0x8,%rsp
ffffffff80205ecb:	89 f8                	mov    %edi,%eax
ffffffff80205ecd:	88 45 fc             	mov    %al,-0x4(%rbp)
ffffffff80205ed0:	80 7d fc 0a          	cmpb   $0xa,-0x4(%rbp)
ffffffff80205ed4:	75 24                	jne    ffffffff80205efa <_ZN3VGA4putcEc+0x3b>
ffffffff80205ed6:	0f b7 05 f5 3c 01 00 	movzwl 0x13cf5(%rip),%eax        # ffffffff80219bd2 <y>
ffffffff80205edd:	83 c0 01             	add    $0x1,%eax
ffffffff80205ee0:	66 89 05 eb 3c 01 00 	mov    %ax,0x13ceb(%rip)        # ffffffff80219bd2 <y>
ffffffff80205ee7:	66 c7 05 e0 3c 01 00 	movw   $0x0,0x13ce0(%rip)        # ffffffff80219bd0 <x>
ffffffff80205eee:	00 00 
ffffffff80205ef0:	e8 71 fd ff ff       	call   ffffffff80205c66 <_Z12SetCursorPosv>
ffffffff80205ef5:	e9 d4 00 00 00       	jmp    ffffffff80205fce <_ZN3VGA4putcEc+0x10f>
ffffffff80205efa:	80 7d fc 09          	cmpb   $0x9,-0x4(%rbp)
ffffffff80205efe:	75 3f                	jne    ffffffff80205f3f <_ZN3VGA4putcEc+0x80>
ffffffff80205f00:	0f b7 05 c9 3c 01 00 	movzwl 0x13cc9(%rip),%eax        # ffffffff80219bd0 <x>
ffffffff80205f07:	83 c0 01             	add    $0x1,%eax
ffffffff80205f0a:	66 89 05 bf 3c 01 00 	mov    %ax,0x13cbf(%rip)        # ffffffff80219bd0 <x>
ffffffff80205f11:	eb 11                	jmp    ffffffff80205f24 <_ZN3VGA4putcEc+0x65>
ffffffff80205f13:	0f b7 05 b6 3c 01 00 	movzwl 0x13cb6(%rip),%eax        # ffffffff80219bd0 <x>
ffffffff80205f1a:	83 c0 01             	add    $0x1,%eax
ffffffff80205f1d:	66 89 05 ac 3c 01 00 	mov    %ax,0x13cac(%rip)        # ffffffff80219bd0 <x>
ffffffff80205f24:	0f b7 05 a5 3c 01 00 	movzwl 0x13ca5(%rip),%eax        # ffffffff80219bd0 <x>
ffffffff80205f2b:	0f b7 c0             	movzwl %ax,%eax
ffffffff80205f2e:	83 e0 03             	and    $0x3,%eax
ffffffff80205f31:	85 c0                	test   %eax,%eax
ffffffff80205f33:	75 de                	jne    ffffffff80205f13 <_ZN3VGA4putcEc+0x54>
ffffffff80205f35:	e8 2c fd ff ff       	call   ffffffff80205c66 <_Z12SetCursorPosv>
ffffffff80205f3a:	e9 8f 00 00 00       	jmp    ffffffff80205fce <_ZN3VGA4putcEc+0x10f>
ffffffff80205f3f:	66 0f be 45 fc       	movsbw -0x4(%rbp),%ax
ffffffff80205f44:	80 cc 0f             	or     $0xf,%ah
ffffffff80205f47:	89 c1                	mov    %eax,%ecx
ffffffff80205f49:	48 8b 35 78 3c 01 00 	mov    0x13c78(%rip),%rsi        # ffffffff80219bc8 <fb_ptr>
ffffffff80205f50:	0f b7 05 7b 3c 01 00 	movzwl 0x13c7b(%rip),%eax        # ffffffff80219bd2 <y>
ffffffff80205f57:	0f b7 d0             	movzwl %ax,%edx
ffffffff80205f5a:	89 d0                	mov    %edx,%eax
ffffffff80205f5c:	c1 e0 02             	shl    $0x2,%eax
ffffffff80205f5f:	01 d0                	add    %edx,%eax
ffffffff80205f61:	c1 e0 04             	shl    $0x4,%eax
ffffffff80205f64:	89 c2                	mov    %eax,%edx
ffffffff80205f66:	0f b7 05 63 3c 01 00 	movzwl 0x13c63(%rip),%eax        # ffffffff80219bd0 <x>
ffffffff80205f6d:	0f b7 c0             	movzwl %ax,%eax
ffffffff80205f70:	01 d0                	add    %edx,%eax
ffffffff80205f72:	48 98                	cltq   
ffffffff80205f74:	48 01 c0             	add    %rax,%rax
ffffffff80205f77:	48 01 f0             	add    %rsi,%rax
ffffffff80205f7a:	89 ca                	mov    %ecx,%edx
ffffffff80205f7c:	66 89 10             	mov    %dx,(%rax)
ffffffff80205f7f:	0f b7 05 4a 3c 01 00 	movzwl 0x13c4a(%rip),%eax        # ffffffff80219bd0 <x>
ffffffff80205f86:	83 c0 01             	add    $0x1,%eax
ffffffff80205f89:	66 89 05 40 3c 01 00 	mov    %ax,0x13c40(%rip)        # ffffffff80219bd0 <x>
ffffffff80205f90:	0f b7 05 39 3c 01 00 	movzwl 0x13c39(%rip),%eax        # ffffffff80219bd0 <x>
ffffffff80205f97:	66 83 f8 4f          	cmp    $0x4f,%ax
ffffffff80205f9b:	76 1a                	jbe    ffffffff80205fb7 <_ZN3VGA4putcEc+0xf8>
ffffffff80205f9d:	66 c7 05 2a 3c 01 00 	movw   $0x0,0x13c2a(%rip)        # ffffffff80219bd0 <x>
ffffffff80205fa4:	00 00 
ffffffff80205fa6:	0f b7 05 25 3c 01 00 	movzwl 0x13c25(%rip),%eax        # ffffffff80219bd2 <y>
ffffffff80205fad:	83 c0 01             	add    $0x1,%eax
ffffffff80205fb0:	66 89 05 1b 3c 01 00 	mov    %ax,0x13c1b(%rip)        # ffffffff80219bd2 <y>
ffffffff80205fb7:	0f b7 05 14 3c 01 00 	movzwl 0x13c14(%rip),%eax        # ffffffff80219bd2 <y>
ffffffff80205fbe:	66 83 f8 18          	cmp    $0x18,%ax
ffffffff80205fc2:	76 05                	jbe    ffffffff80205fc9 <_ZN3VGA4putcEc+0x10a>
ffffffff80205fc4:	e8 18 fe ff ff       	call   ffffffff80205de1 <_Z6Scrollv>
ffffffff80205fc9:	e8 98 fc ff ff       	call   ffffffff80205c66 <_Z12SetCursorPosv>
ffffffff80205fce:	c9                   	leave  
ffffffff80205fcf:	c3                   	ret    

ffffffff80205fd0 <_ZN3VGA4putsEPKc>:
ffffffff80205fd0:	f3 0f 1e fa          	endbr64 
ffffffff80205fd4:	55                   	push   %rbp
ffffffff80205fd5:	48 89 e5             	mov    %rsp,%rbp
ffffffff80205fd8:	48 83 ec 08          	sub    $0x8,%rsp
ffffffff80205fdc:	48 89 7d f8          	mov    %rdi,-0x8(%rbp)
ffffffff80205fe0:	eb 19                	jmp    ffffffff80205ffb <_ZN3VGA4putsEPKc+0x2b>
ffffffff80205fe2:	48 8b 45 f8          	mov    -0x8(%rbp),%rax
ffffffff80205fe6:	48 8d 50 01          	lea    0x1(%rax),%rdx
ffffffff80205fea:	48 89 55 f8          	mov    %rdx,-0x8(%rbp)
ffffffff80205fee:	0f b6 00             	movzbl (%rax),%eax
ffffffff80205ff1:	0f be c0             	movsbl %al,%eax
ffffffff80205ff4:	89 c7                	mov    %eax,%edi
ffffffff80205ff6:	e8 c4 fe ff ff       	call   ffffffff80205ebf <_ZN3VGA4putcEc>
ffffffff80205ffb:	48 8b 45 f8          	mov    -0x8(%rbp),%rax
ffffffff80205fff:	0f b6 00             	movzbl (%rax),%eax
ffffffff80206002:	84 c0                	test   %al,%al
ffffffff80206004:	75 dc                	jne    ffffffff80205fe2 <_ZN3VGA4putsEPKc+0x12>
ffffffff80206006:	90                   	nop
ffffffff80206007:	90                   	nop
ffffffff80206008:	c9                   	leave  
ffffffff80206009:	c3                   	ret    

ffffffff8020600a <_ZN3VGA7seek_toEii>:
ffffffff8020600a:	f3 0f 1e fa          	endbr64 
ffffffff8020600e:	55                   	push   %rbp
ffffffff8020600f:	48 89 e5             	mov    %rsp,%rbp
ffffffff80206012:	48 83 ec 08          	sub    $0x8,%rsp
ffffffff80206016:	89 7d fc             	mov    %edi,-0x4(%rbp)
ffffffff80206019:	89 75 f8             	mov    %esi,-0x8(%rbp)
ffffffff8020601c:	8b 45 fc             	mov    -0x4(%rbp),%eax
ffffffff8020601f:	66 89 05 aa 3b 01 00 	mov    %ax,0x13baa(%rip)        # ffffffff80219bd0 <x>
ffffffff80206026:	8b 45 f8             	mov    -0x8(%rbp),%eax
ffffffff80206029:	66 89 05 a2 3b 01 00 	mov    %ax,0x13ba2(%rip)        # ffffffff80219bd2 <y>
ffffffff80206030:	e8 31 fc ff ff       	call   ffffffff80205c66 <_Z12SetCursorPosv>
ffffffff80206035:	90                   	nop
ffffffff80206036:	c9                   	leave  
ffffffff80206037:	c3                   	ret    

ffffffff80206038 <_ZN3VGA5get_xEv>:
ffffffff80206038:	f3 0f 1e fa          	endbr64 
ffffffff8020603c:	55                   	push   %rbp
ffffffff8020603d:	48 89 e5             	mov    %rsp,%rbp
ffffffff80206040:	0f b7 05 89 3b 01 00 	movzwl 0x13b89(%rip),%eax        # ffffffff80219bd0 <x>
ffffffff80206047:	0f b7 c0             	movzwl %ax,%eax
ffffffff8020604a:	5d                   	pop    %rbp
ffffffff8020604b:	c3                   	ret    

ffffffff8020604c <_ZN3VGA5get_yEv>:
ffffffff8020604c:	f3 0f 1e fa          	endbr64 
ffffffff80206050:	55                   	push   %rbp
ffffffff80206051:	48 89 e5             	mov    %rsp,%rbp
ffffffff80206054:	0f b7 05 77 3b 01 00 	movzwl 0x13b77(%rip),%eax        # ffffffff80219bd2 <y>
ffffffff8020605b:	0f b7 c0             	movzwl %ax,%eax
ffffffff8020605e:	5d                   	pop    %rbp
ffffffff8020605f:	c3                   	ret    

ffffffff80206060 <_Z4swapRcS_>:
ffffffff80206060:	f3 0f 1e fa          	endbr64 
ffffffff80206064:	55                   	push   %rbp
ffffffff80206065:	48 89 e5             	mov    %rsp,%rbp
ffffffff80206068:	48 83 ec 20          	sub    $0x20,%rsp
ffffffff8020606c:	48 89 7d e8          	mov    %rdi,-0x18(%rbp)
ffffffff80206070:	48 89 75 e0          	mov    %rsi,-0x20(%rbp)
ffffffff80206074:	48 8b 45 e8          	mov    -0x18(%rbp),%rax
ffffffff80206078:	0f b6 00             	movzbl (%rax),%eax
ffffffff8020607b:	88 45 ff             	mov    %al,-0x1(%rbp)
ffffffff8020607e:	48 8b 45 e0          	mov    -0x20(%rbp),%rax
ffffffff80206082:	0f b6 10             	movzbl (%rax),%edx
ffffffff80206085:	48 8b 45 e8          	mov    -0x18(%rbp),%rax
ffffffff80206089:	88 10                	mov    %dl,(%rax)
ffffffff8020608b:	48 8b 45 e0          	mov    -0x20(%rbp),%rax
ffffffff8020608f:	0f b6 55 ff          	movzbl -0x1(%rbp),%edx
ffffffff80206093:	88 10                	mov    %dl,(%rax)
ffffffff80206095:	90                   	nop
ffffffff80206096:	c9                   	leave  
ffffffff80206097:	c3                   	ret    

ffffffff80206098 <_Z7reversePci>:
ffffffff80206098:	f3 0f 1e fa          	endbr64 
ffffffff8020609c:	55                   	push   %rbp
ffffffff8020609d:	48 89 e5             	mov    %rsp,%rbp
ffffffff802060a0:	48 83 ec 20          	sub    $0x20,%rsp
ffffffff802060a4:	48 89 7d e8          	mov    %rdi,-0x18(%rbp)
ffffffff802060a8:	89 75 e4             	mov    %esi,-0x1c(%rbp)
ffffffff802060ab:	c7 45 fc 00 00 00 00 	movl   $0x0,-0x4(%rbp)
ffffffff802060b2:	8b 45 e4             	mov    -0x1c(%rbp),%eax
ffffffff802060b5:	83 e8 01             	sub    $0x1,%eax
ffffffff802060b8:	89 45 f8             	mov    %eax,-0x8(%rbp)
ffffffff802060bb:	eb 2d                	jmp    ffffffff802060ea <_Z7reversePci+0x52>
ffffffff802060bd:	8b 45 f8             	mov    -0x8(%rbp),%eax
ffffffff802060c0:	48 63 d0             	movslq %eax,%rdx
ffffffff802060c3:	48 8b 45 e8          	mov    -0x18(%rbp),%rax
ffffffff802060c7:	48 01 c2             	add    %rax,%rdx
ffffffff802060ca:	8b 45 fc             	mov    -0x4(%rbp),%eax
ffffffff802060cd:	48 63 c8             	movslq %eax,%rcx
ffffffff802060d0:	48 8b 45 e8          	mov    -0x18(%rbp),%rax
ffffffff802060d4:	48 01 c8             	add    %rcx,%rax
ffffffff802060d7:	48 89 d6             	mov    %rdx,%rsi
ffffffff802060da:	48 89 c7             	mov    %rax,%rdi
ffffffff802060dd:	e8 7e ff ff ff       	call   ffffffff80206060 <_Z4swapRcS_>
ffffffff802060e2:	83 45 fc 01          	addl   $0x1,-0x4(%rbp)
ffffffff802060e6:	83 45 f8 01          	addl   $0x1,-0x8(%rbp)
ffffffff802060ea:	8b 45 fc             	mov    -0x4(%rbp),%eax
ffffffff802060ed:	3b 45 f8             	cmp    -0x8(%rbp),%eax
ffffffff802060f0:	7c cb                	jl     ffffffff802060bd <_Z7reversePci+0x25>
ffffffff802060f2:	90                   	nop
ffffffff802060f3:	90                   	nop
ffffffff802060f4:	c9                   	leave  
ffffffff802060f5:	c3                   	ret    

ffffffff802060f6 <_Z4itoaPcmi>:
ffffffff802060f6:	f3 0f 1e fa          	endbr64 
ffffffff802060fa:	55                   	push   %rbp
ffffffff802060fb:	48 89 e5             	mov    %rsp,%rbp
ffffffff802060fe:	48 83 ec 28          	sub    $0x28,%rsp
ffffffff80206102:	48 89 7d e8          	mov    %rdi,-0x18(%rbp)
ffffffff80206106:	48 89 75 e0          	mov    %rsi,-0x20(%rbp)
ffffffff8020610a:	89 55 dc             	mov    %edx,-0x24(%rbp)
ffffffff8020610d:	48 8b 45 e0          	mov    -0x20(%rbp),%rax
ffffffff80206111:	48 89 45 f0          	mov    %rax,-0x10(%rbp)
ffffffff80206115:	c7 45 fc 00 00 00 00 	movl   $0x0,-0x4(%rbp)
ffffffff8020611c:	8b 45 dc             	mov    -0x24(%rbp),%eax
ffffffff8020611f:	48 63 c8             	movslq %eax,%rcx
ffffffff80206122:	48 8b 45 e0          	mov    -0x20(%rbp),%rax
ffffffff80206126:	ba 00 00 00 00       	mov    $0x0,%edx
ffffffff8020612b:	48 f7 f1             	div    %rcx
ffffffff8020612e:	48 89 55 f0          	mov    %rdx,-0x10(%rbp)
ffffffff80206132:	48 83 7d f0 09       	cmpq   $0x9,-0x10(%rbp)
ffffffff80206137:	77 0b                	ja     ffffffff80206144 <_Z4itoaPcmi+0x4e>
ffffffff80206139:	48 8b 45 f0          	mov    -0x10(%rbp),%rax
ffffffff8020613d:	83 c0 30             	add    $0x30,%eax
ffffffff80206140:	89 c1                	mov    %eax,%ecx
ffffffff80206142:	eb 09                	jmp    ffffffff8020614d <_Z4itoaPcmi+0x57>
ffffffff80206144:	48 8b 45 f0          	mov    -0x10(%rbp),%rax
ffffffff80206148:	83 c0 57             	add    $0x57,%eax
ffffffff8020614b:	89 c1                	mov    %eax,%ecx
ffffffff8020614d:	48 8b 75 e8          	mov    -0x18(%rbp),%rsi
ffffffff80206151:	8b 45 fc             	mov    -0x4(%rbp),%eax
ffffffff80206154:	8d 50 01             	lea    0x1(%rax),%edx
ffffffff80206157:	89 55 fc             	mov    %edx,-0x4(%rbp)
ffffffff8020615a:	48 98                	cltq   
ffffffff8020615c:	48 01 f0             	add    %rsi,%rax
ffffffff8020615f:	88 08                	mov    %cl,(%rax)
ffffffff80206161:	8b 45 dc             	mov    -0x24(%rbp),%eax
ffffffff80206164:	48 63 f8             	movslq %eax,%rdi
ffffffff80206167:	48 8b 45 e0          	mov    -0x20(%rbp),%rax
ffffffff8020616b:	ba 00 00 00 00       	mov    $0x0,%edx
ffffffff80206170:	48 f7 f7             	div    %rdi
ffffffff80206173:	48 89 45 e0          	mov    %rax,-0x20(%rbp)
ffffffff80206177:	48 83 7d e0 00       	cmpq   $0x0,-0x20(%rbp)
ffffffff8020617c:	0f 95 c0             	setne  %al
ffffffff8020617f:	84 c0                	test   %al,%al
ffffffff80206181:	75 99                	jne    ffffffff8020611c <_Z4itoaPcmi+0x26>
ffffffff80206183:	48 8b 4d e8          	mov    -0x18(%rbp),%rcx
ffffffff80206187:	8b 45 fc             	mov    -0x4(%rbp),%eax
ffffffff8020618a:	8d 50 ff             	lea    -0x1(%rax),%edx
ffffffff8020618d:	89 55 fc             	mov    %edx,-0x4(%rbp)
ffffffff80206190:	48 98                	cltq   
ffffffff80206192:	48 01 c8             	add    %rcx,%rax
ffffffff80206195:	c6 00 00             	movb   $0x0,(%rax)
ffffffff80206198:	c7 45 f8 00 00 00 00 	movl   $0x0,-0x8(%rbp)
ffffffff8020619f:	eb 52                	jmp    ffffffff802061f3 <_Z4itoaPcmi+0xfd>
ffffffff802061a1:	8b 45 f8             	mov    -0x8(%rbp),%eax
ffffffff802061a4:	48 63 d0             	movslq %eax,%rdx
ffffffff802061a7:	48 8b 45 e8          	mov    -0x18(%rbp),%rax
ffffffff802061ab:	48 01 d0             	add    %rdx,%rax
ffffffff802061ae:	0f b6 00             	movzbl (%rax),%eax
ffffffff802061b1:	48 0f be c0          	movsbq %al,%rax
ffffffff802061b5:	48 89 45 f0          	mov    %rax,-0x10(%rbp)
ffffffff802061b9:	8b 45 fc             	mov    -0x4(%rbp),%eax
ffffffff802061bc:	48 63 d0             	movslq %eax,%rdx
ffffffff802061bf:	48 8b 45 e8          	mov    -0x18(%rbp),%rax
ffffffff802061c3:	48 01 d0             	add    %rdx,%rax
ffffffff802061c6:	8b 55 f8             	mov    -0x8(%rbp),%edx
ffffffff802061c9:	48 63 ca             	movslq %edx,%rcx
ffffffff802061cc:	48 8b 55 e8          	mov    -0x18(%rbp),%rdx
ffffffff802061d0:	48 01 ca             	add    %rcx,%rdx
ffffffff802061d3:	0f b6 00             	movzbl (%rax),%eax
ffffffff802061d6:	88 02                	mov    %al,(%rdx)
ffffffff802061d8:	8b 45 fc             	mov    -0x4(%rbp),%eax
ffffffff802061db:	48 63 d0             	movslq %eax,%rdx
ffffffff802061de:	48 8b 45 e8          	mov    -0x18(%rbp),%rax
ffffffff802061e2:	48 01 d0             	add    %rdx,%rax
ffffffff802061e5:	48 8b 55 f0          	mov    -0x10(%rbp),%rdx
ffffffff802061e9:	88 10                	mov    %dl,(%rax)
ffffffff802061eb:	83 45 f8 01          	addl   $0x1,-0x8(%rbp)
ffffffff802061ef:	83 6d fc 01          	subl   $0x1,-0x4(%rbp)
ffffffff802061f3:	8b 45 f8             	mov    -0x8(%rbp),%eax
ffffffff802061f6:	3b 45 fc             	cmp    -0x4(%rbp),%eax
ffffffff802061f9:	7c a6                	jl     ffffffff802061a1 <_Z4itoaPcmi+0xab>
ffffffff802061fb:	90                   	nop
ffffffff802061fc:	90                   	nop
ffffffff802061fd:	c9                   	leave  
ffffffff802061fe:	c3                   	ret    

ffffffff802061ff <_Z4ltoali>:
ffffffff802061ff:	f3 0f 1e fa          	endbr64 
ffffffff80206203:	55                   	push   %rbp
ffffffff80206204:	48 89 e5             	mov    %rsp,%rbp
ffffffff80206207:	48 83 ec 20          	sub    $0x20,%rsp
ffffffff8020620b:	48 89 7d e8          	mov    %rdi,-0x18(%rbp)
ffffffff8020620f:	89 75 e4             	mov    %esi,-0x1c(%rbp)
ffffffff80206212:	48 83 7d e8 00       	cmpq   $0x0,-0x18(%rbp)
ffffffff80206217:	75 17                	jne    ffffffff80206230 <_Z4ltoali+0x31>
ffffffff80206219:	c6 05 c0 39 01 00 30 	movb   $0x30,0x139c0(%rip)        # ffffffff80219be0 <_ZZ4ltoaliE3buf>
ffffffff80206220:	c6 05 ba 39 01 00 00 	movb   $0x0,0x139ba(%rip)        # ffffffff80219be1 <_ZZ4ltoaliE3buf+0x1>
ffffffff80206227:	48 c7 c0 e0 9b 21 80 	mov    $0xffffffff80219be0,%rax
ffffffff8020622e:	eb 5f                	jmp    ffffffff8020628f <_Z4ltoali+0x90>
ffffffff80206230:	c7 45 fc 3c 00 00 00 	movl   $0x3c,-0x4(%rbp)
ffffffff80206237:	eb 3b                	jmp    ffffffff80206274 <_Z4ltoali+0x75>
ffffffff80206239:	8b 45 e4             	mov    -0x1c(%rbp),%eax
ffffffff8020623c:	48 63 c8             	movslq %eax,%rcx
ffffffff8020623f:	48 8b 45 e8          	mov    -0x18(%rbp),%rax
ffffffff80206243:	48 99                	cqto   
ffffffff80206245:	48 f7 f9             	idiv   %rcx
ffffffff80206248:	48 89 d0             	mov    %rdx,%rax
ffffffff8020624b:	0f b6 90 16 13 20 80 	movzbl -0x7fdfecea(%rax),%edx
ffffffff80206252:	8b 45 fc             	mov    -0x4(%rbp),%eax
ffffffff80206255:	48 98                	cltq   
ffffffff80206257:	88 90 e0 9b 21 80    	mov    %dl,-0x7fde6420(%rax)
ffffffff8020625d:	83 6d fc 01          	subl   $0x1,-0x4(%rbp)
ffffffff80206261:	8b 45 e4             	mov    -0x1c(%rbp),%eax
ffffffff80206264:	48 63 f0             	movslq %eax,%rsi
ffffffff80206267:	48 8b 45 e8          	mov    -0x18(%rbp),%rax
ffffffff8020626b:	48 99                	cqto   
ffffffff8020626d:	48 f7 fe             	idiv   %rsi
ffffffff80206270:	48 89 45 e8          	mov    %rax,-0x18(%rbp)
ffffffff80206274:	48 83 7d e8 00       	cmpq   $0x0,-0x18(%rbp)
ffffffff80206279:	74 06                	je     ffffffff80206281 <_Z4ltoali+0x82>
ffffffff8020627b:	83 7d fc 00          	cmpl   $0x0,-0x4(%rbp)
ffffffff8020627f:	75 b8                	jne    ffffffff80206239 <_Z4ltoali+0x3a>
ffffffff80206281:	8b 45 fc             	mov    -0x4(%rbp),%eax
ffffffff80206284:	83 c0 01             	add    $0x1,%eax
ffffffff80206287:	48 98                	cltq   
ffffffff80206289:	48 05 e0 9b 21 80    	add    $0xffffffff80219be0,%rax
ffffffff8020628f:	c9                   	leave  
ffffffff80206290:	c3                   	ret    

ffffffff80206291 <_ZN3VGA13vprint_formatEPKcP13__va_list_tag>:
ffffffff80206291:	f3 0f 1e fa          	endbr64 
ffffffff80206295:	55                   	push   %rbp
ffffffff80206296:	48 89 e5             	mov    %rsp,%rbp
ffffffff80206299:	48 83 ec 50          	sub    $0x50,%rsp
ffffffff8020629d:	48 89 7d b8          	mov    %rdi,-0x48(%rbp)
ffffffff802062a1:	48 89 75 b0          	mov    %rsi,-0x50(%rbp)
ffffffff802062a5:	e9 ed 01 00 00       	jmp    ffffffff80206497 <_ZN3VGA13vprint_formatEPKcP13__va_list_tag+0x206>
ffffffff802062aa:	48 8b 45 b8          	mov    -0x48(%rbp),%rax
ffffffff802062ae:	0f b6 00             	movzbl (%rax),%eax
ffffffff802062b1:	3c 25                	cmp    $0x25,%al
ffffffff802062b3:	0f 85 c5 01 00 00    	jne    ffffffff8020647e <_ZN3VGA13vprint_formatEPKcP13__va_list_tag+0x1ed>
ffffffff802062b9:	48 83 45 b8 01       	addq   $0x1,-0x48(%rbp)
ffffffff802062be:	48 8b 45 b8          	mov    -0x48(%rbp),%rax
ffffffff802062c2:	48 8d 50 01          	lea    0x1(%rax),%rdx
ffffffff802062c6:	48 89 55 b8          	mov    %rdx,-0x48(%rbp)
ffffffff802062ca:	0f b6 00             	movzbl (%rax),%eax
ffffffff802062cd:	0f be c0             	movsbl %al,%eax
ffffffff802062d0:	83 f8 78             	cmp    $0x78,%eax
ffffffff802062d3:	0f 84 af 00 00 00    	je     ffffffff80206388 <_ZN3VGA13vprint_formatEPKcP13__va_list_tag+0xf7>
ffffffff802062d9:	83 f8 78             	cmp    $0x78,%eax
ffffffff802062dc:	0f 8f b5 01 00 00    	jg     ffffffff80206497 <_ZN3VGA13vprint_formatEPKcP13__va_list_tag+0x206>
ffffffff802062e2:	83 f8 64             	cmp    $0x64,%eax
ffffffff802062e5:	74 0e                	je     ffffffff802062f5 <_ZN3VGA13vprint_formatEPKcP13__va_list_tag+0x64>
ffffffff802062e7:	83 f8 6c             	cmp    $0x6c,%eax
ffffffff802062ea:	0f 84 28 01 00 00    	je     ffffffff80206418 <_ZN3VGA13vprint_formatEPKcP13__va_list_tag+0x187>
ffffffff802062f0:	e9 a2 01 00 00       	jmp    ffffffff80206497 <_ZN3VGA13vprint_formatEPKcP13__va_list_tag+0x206>
ffffffff802062f5:	48 8b 45 b0          	mov    -0x50(%rbp),%rax
ffffffff802062f9:	8b 00                	mov    (%rax),%eax
ffffffff802062fb:	83 f8 2f             	cmp    $0x2f,%eax
ffffffff802062fe:	77 24                	ja     ffffffff80206324 <_ZN3VGA13vprint_formatEPKcP13__va_list_tag+0x93>
ffffffff80206300:	48 8b 45 b0          	mov    -0x50(%rbp),%rax
ffffffff80206304:	48 8b 50 10          	mov    0x10(%rax),%rdx
ffffffff80206308:	48 8b 45 b0          	mov    -0x50(%rbp),%rax
ffffffff8020630c:	8b 00                	mov    (%rax),%eax
ffffffff8020630e:	89 c0                	mov    %eax,%eax
ffffffff80206310:	48 01 d0             	add    %rdx,%rax
ffffffff80206313:	48 8b 55 b0          	mov    -0x50(%rbp),%rdx
ffffffff80206317:	8b 12                	mov    (%rdx),%edx
ffffffff80206319:	8d 4a 08             	lea    0x8(%rdx),%ecx
ffffffff8020631c:	48 8b 55 b0          	mov    -0x50(%rbp),%rdx
ffffffff80206320:	89 0a                	mov    %ecx,(%rdx)
ffffffff80206322:	eb 14                	jmp    ffffffff80206338 <_ZN3VGA13vprint_formatEPKcP13__va_list_tag+0xa7>
ffffffff80206324:	48 8b 45 b0          	mov    -0x50(%rbp),%rax
ffffffff80206328:	48 8b 40 08          	mov    0x8(%rax),%rax
ffffffff8020632c:	48 8d 48 08          	lea    0x8(%rax),%rcx
ffffffff80206330:	48 8b 55 b0          	mov    -0x50(%rbp),%rdx
ffffffff80206334:	48 89 4a 08          	mov    %rcx,0x8(%rdx)
ffffffff80206338:	8b 00                	mov    (%rax),%eax
ffffffff8020633a:	89 45 ec             	mov    %eax,-0x14(%rbp)
ffffffff8020633d:	48 c7 45 c0 00 00 00 	movq   $0x0,-0x40(%rbp)
ffffffff80206344:	00 
ffffffff80206345:	48 c7 45 c8 00 00 00 	movq   $0x0,-0x38(%rbp)
ffffffff8020634c:	00 
ffffffff8020634d:	48 c7 45 d0 00 00 00 	movq   $0x0,-0x30(%rbp)
ffffffff80206354:	00 
ffffffff80206355:	48 c7 45 d8 00 00 00 	movq   $0x0,-0x28(%rbp)
ffffffff8020635c:	00 
ffffffff8020635d:	8b 45 ec             	mov    -0x14(%rbp),%eax
ffffffff80206360:	48 63 c8             	movslq %eax,%rcx
ffffffff80206363:	48 8d 45 c0          	lea    -0x40(%rbp),%rax
ffffffff80206367:	ba 0a 00 00 00       	mov    $0xa,%edx
ffffffff8020636c:	48 89 ce             	mov    %rcx,%rsi
ffffffff8020636f:	48 89 c7             	mov    %rax,%rdi
ffffffff80206372:	e8 7f fd ff ff       	call   ffffffff802060f6 <_Z4itoaPcmi>
ffffffff80206377:	48 8d 45 c0          	lea    -0x40(%rbp),%rax
ffffffff8020637b:	48 89 c7             	mov    %rax,%rdi
ffffffff8020637e:	e8 4d fc ff ff       	call   ffffffff80205fd0 <_ZN3VGA4putsEPKc>
ffffffff80206383:	e9 0f 01 00 00       	jmp    ffffffff80206497 <_ZN3VGA13vprint_formatEPKcP13__va_list_tag+0x206>
ffffffff80206388:	48 8b 45 b0          	mov    -0x50(%rbp),%rax
ffffffff8020638c:	8b 00                	mov    (%rax),%eax
ffffffff8020638e:	83 f8 2f             	cmp    $0x2f,%eax
ffffffff80206391:	77 24                	ja     ffffffff802063b7 <_ZN3VGA13vprint_formatEPKcP13__va_list_tag+0x126>
ffffffff80206393:	48 8b 45 b0          	mov    -0x50(%rbp),%rax
ffffffff80206397:	48 8b 50 10          	mov    0x10(%rax),%rdx
ffffffff8020639b:	48 8b 45 b0          	mov    -0x50(%rbp),%rax
ffffffff8020639f:	8b 00                	mov    (%rax),%eax
ffffffff802063a1:	89 c0                	mov    %eax,%eax
ffffffff802063a3:	48 01 d0             	add    %rdx,%rax
ffffffff802063a6:	48 8b 55 b0          	mov    -0x50(%rbp),%rdx
ffffffff802063aa:	8b 12                	mov    (%rdx),%edx
ffffffff802063ac:	8d 4a 08             	lea    0x8(%rdx),%ecx
ffffffff802063af:	48 8b 55 b0          	mov    -0x50(%rbp),%rdx
ffffffff802063b3:	89 0a                	mov    %ecx,(%rdx)
ffffffff802063b5:	eb 14                	jmp    ffffffff802063cb <_ZN3VGA13vprint_formatEPKcP13__va_list_tag+0x13a>
ffffffff802063b7:	48 8b 45 b0          	mov    -0x50(%rbp),%rax
ffffffff802063bb:	48 8b 40 08          	mov    0x8(%rax),%rax
ffffffff802063bf:	48 8d 48 08          	lea    0x8(%rax),%rcx
ffffffff802063c3:	48 8b 55 b0          	mov    -0x50(%rbp),%rdx
ffffffff802063c7:	48 89 4a 08          	mov    %rcx,0x8(%rdx)
ffffffff802063cb:	8b 00                	mov    (%rax),%eax
ffffffff802063cd:	89 45 fc             	mov    %eax,-0x4(%rbp)
ffffffff802063d0:	48 c7 45 c0 00 00 00 	movq   $0x0,-0x40(%rbp)
ffffffff802063d7:	00 
ffffffff802063d8:	48 c7 45 c8 00 00 00 	movq   $0x0,-0x38(%rbp)
ffffffff802063df:	00 
ffffffff802063e0:	48 c7 45 d0 00 00 00 	movq   $0x0,-0x30(%rbp)
ffffffff802063e7:	00 
ffffffff802063e8:	48 c7 45 d8 00 00 00 	movq   $0x0,-0x28(%rbp)
ffffffff802063ef:	00 
ffffffff802063f0:	8b 45 fc             	mov    -0x4(%rbp),%eax
ffffffff802063f3:	48 63 c8             	movslq %eax,%rcx
ffffffff802063f6:	48 8d 45 c0          	lea    -0x40(%rbp),%rax
ffffffff802063fa:	ba 10 00 00 00       	mov    $0x10,%edx
ffffffff802063ff:	48 89 ce             	mov    %rcx,%rsi
ffffffff80206402:	48 89 c7             	mov    %rax,%rdi
ffffffff80206405:	e8 ec fc ff ff       	call   ffffffff802060f6 <_Z4itoaPcmi>
ffffffff8020640a:	48 8d 45 c0          	lea    -0x40(%rbp),%rax
ffffffff8020640e:	48 89 c7             	mov    %rax,%rdi
ffffffff80206411:	e8 ba fb ff ff       	call   ffffffff80205fd0 <_ZN3VGA4putsEPKc>
ffffffff80206416:	eb 7f                	jmp    ffffffff80206497 <_ZN3VGA13vprint_formatEPKcP13__va_list_tag+0x206>
ffffffff80206418:	48 8b 45 b0          	mov    -0x50(%rbp),%rax
ffffffff8020641c:	8b 00                	mov    (%rax),%eax
ffffffff8020641e:	83 f8 2f             	cmp    $0x2f,%eax
ffffffff80206421:	77 24                	ja     ffffffff80206447 <_ZN3VGA13vprint_formatEPKcP13__va_list_tag+0x1b6>
ffffffff80206423:	48 8b 45 b0          	mov    -0x50(%rbp),%rax
ffffffff80206427:	48 8b 50 10          	mov    0x10(%rax),%rdx
ffffffff8020642b:	48 8b 45 b0          	mov    -0x50(%rbp),%rax
ffffffff8020642f:	8b 00                	mov    (%rax),%eax
ffffffff80206431:	89 c0                	mov    %eax,%eax
ffffffff80206433:	48 01 d0             	add    %rdx,%rax
ffffffff80206436:	48 8b 55 b0          	mov    -0x50(%rbp),%rdx
ffffffff8020643a:	8b 12                	mov    (%rdx),%edx
ffffffff8020643c:	8d 4a 08             	lea    0x8(%rdx),%ecx
ffffffff8020643f:	48 8b 55 b0          	mov    -0x50(%rbp),%rdx
ffffffff80206443:	89 0a                	mov    %ecx,(%rdx)
ffffffff80206445:	eb 14                	jmp    ffffffff8020645b <_ZN3VGA13vprint_formatEPKcP13__va_list_tag+0x1ca>
ffffffff80206447:	48 8b 45 b0          	mov    -0x50(%rbp),%rax
ffffffff8020644b:	48 8b 40 08          	mov    0x8(%rax),%rax
ffffffff8020644f:	48 8d 48 08          	lea    0x8(%rax),%rcx
ffffffff80206453:	48 8b 55 b0          	mov    -0x50(%rbp),%rdx
ffffffff80206457:	48 89 4a 08          	mov    %rcx,0x8(%rdx)
ffffffff8020645b:	48 8b 00             	mov    (%rax),%rax
ffffffff8020645e:	48 89 45 f0          	mov    %rax,-0x10(%rbp)
ffffffff80206462:	48 8b 45 f0          	mov    -0x10(%rbp),%rax
ffffffff80206466:	be 10 00 00 00       	mov    $0x10,%esi
ffffffff8020646b:	48 89 c7             	mov    %rax,%rdi
ffffffff8020646e:	e8 8c fd ff ff       	call   ffffffff802061ff <_Z4ltoali>
ffffffff80206473:	48 89 c7             	mov    %rax,%rdi
ffffffff80206476:	e8 55 fb ff ff       	call   ffffffff80205fd0 <_ZN3VGA4putsEPKc>
ffffffff8020647b:	90                   	nop
ffffffff8020647c:	eb 19                	jmp    ffffffff80206497 <_ZN3VGA13vprint_formatEPKcP13__va_list_tag+0x206>
ffffffff8020647e:	48 8b 45 b8          	mov    -0x48(%rbp),%rax
ffffffff80206482:	48 8d 50 01          	lea    0x1(%rax),%rdx
ffffffff80206486:	48 89 55 b8          	mov    %rdx,-0x48(%rbp)
ffffffff8020648a:	0f b6 00             	movzbl (%rax),%eax
ffffffff8020648d:	0f be c0             	movsbl %al,%eax
ffffffff80206490:	89 c7                	mov    %eax,%edi
ffffffff80206492:	e8 28 fa ff ff       	call   ffffffff80205ebf <_ZN3VGA4putcEc>
ffffffff80206497:	48 8b 45 b8          	mov    -0x48(%rbp),%rax
ffffffff8020649b:	0f b6 00             	movzbl (%rax),%eax
ffffffff8020649e:	84 c0                	test   %al,%al
ffffffff802064a0:	0f 85 04 fe ff ff    	jne    ffffffff802062aa <_ZN3VGA13vprint_formatEPKcP13__va_list_tag+0x19>
ffffffff802064a6:	90                   	nop
ffffffff802064a7:	90                   	nop
ffffffff802064a8:	c9                   	leave  
ffffffff802064a9:	c3                   	ret    

ffffffff802064aa <_ZN3VGA12print_formatEPKcz>:
ffffffff802064aa:	f3 0f 1e fa          	endbr64 
ffffffff802064ae:	55                   	push   %rbp
ffffffff802064af:	48 89 e5             	mov    %rsp,%rbp
ffffffff802064b2:	48 81 ec e0 00 00 00 	sub    $0xe0,%rsp
ffffffff802064b9:	48 89 bd 28 ff ff ff 	mov    %rdi,-0xd8(%rbp)
ffffffff802064c0:	48 89 b5 58 ff ff ff 	mov    %rsi,-0xa8(%rbp)
ffffffff802064c7:	48 89 95 60 ff ff ff 	mov    %rdx,-0xa0(%rbp)
ffffffff802064ce:	48 89 8d 68 ff ff ff 	mov    %rcx,-0x98(%rbp)
ffffffff802064d5:	4c 89 85 70 ff ff ff 	mov    %r8,-0x90(%rbp)
ffffffff802064dc:	4c 89 8d 78 ff ff ff 	mov    %r9,-0x88(%rbp)
ffffffff802064e3:	84 c0                	test   %al,%al
ffffffff802064e5:	74 20                	je     ffffffff80206507 <_ZN3VGA12print_formatEPKcz+0x5d>
ffffffff802064e7:	0f 29 45 80          	movaps %xmm0,-0x80(%rbp)
ffffffff802064eb:	0f 29 4d 90          	movaps %xmm1,-0x70(%rbp)
ffffffff802064ef:	0f 29 55 a0          	movaps %xmm2,-0x60(%rbp)
ffffffff802064f3:	0f 29 5d b0          	movaps %xmm3,-0x50(%rbp)
ffffffff802064f7:	0f 29 65 c0          	movaps %xmm4,-0x40(%rbp)
ffffffff802064fb:	0f 29 6d d0          	movaps %xmm5,-0x30(%rbp)
ffffffff802064ff:	0f 29 75 e0          	movaps %xmm6,-0x20(%rbp)
ffffffff80206503:	0f 29 7d f0          	movaps %xmm7,-0x10(%rbp)
ffffffff80206507:	48 c7 c7 c0 9b 21 80 	mov    $0xffffffff80219bc0,%rdi
ffffffff8020650e:	e8 cd f5 ff ff       	call   ffffffff80205ae0 <_ZN8Spinlock4LockEv>
ffffffff80206513:	c7 85 38 ff ff ff 08 	movl   $0x8,-0xc8(%rbp)
ffffffff8020651a:	00 00 00 
ffffffff8020651d:	c7 85 3c ff ff ff 30 	movl   $0x30,-0xc4(%rbp)
ffffffff80206524:	00 00 00 
ffffffff80206527:	48 8d 45 10          	lea    0x10(%rbp),%rax
ffffffff8020652b:	48 89 85 40 ff ff ff 	mov    %rax,-0xc0(%rbp)
ffffffff80206532:	48 8d 85 50 ff ff ff 	lea    -0xb0(%rbp),%rax
ffffffff80206539:	48 89 85 48 ff ff ff 	mov    %rax,-0xb8(%rbp)
ffffffff80206540:	48 8d 95 38 ff ff ff 	lea    -0xc8(%rbp),%rdx
ffffffff80206547:	48 8b 85 28 ff ff ff 	mov    -0xd8(%rbp),%rax
ffffffff8020654e:	48 89 d6             	mov    %rdx,%rsi
ffffffff80206551:	48 89 c7             	mov    %rax,%rdi
ffffffff80206554:	e8 38 fd ff ff       	call   ffffffff80206291 <_ZN3VGA13vprint_formatEPKcP13__va_list_tag>
ffffffff80206559:	48 c7 c7 c0 9b 21 80 	mov    $0xffffffff80219bc0,%rdi
ffffffff80206560:	e8 9f f5 ff ff       	call   ffffffff80205b04 <_ZN8Spinlock7ReleaseEv>
ffffffff80206565:	90                   	nop
ffffffff80206566:	c9                   	leave  
ffffffff80206567:	c3                   	ret    

ffffffff80206568 <_Z41__static_initialization_and_destruction_0ii>:
ffffffff80206568:	f3 0f 1e fa          	endbr64 
ffffffff8020656c:	55                   	push   %rbp
ffffffff8020656d:	48 89 e5             	mov    %rsp,%rbp
ffffffff80206570:	48 83 ec 10          	sub    $0x10,%rsp
ffffffff80206574:	89 7d fc             	mov    %edi,-0x4(%rbp)
ffffffff80206577:	89 75 f8             	mov    %esi,-0x8(%rbp)
ffffffff8020657a:	83 7d fc 01          	cmpl   $0x1,-0x4(%rbp)
ffffffff8020657e:	75 15                	jne    ffffffff80206595 <_Z41__static_initialization_and_destruction_0ii+0x2d>
ffffffff80206580:	81 7d f8 ff ff 00 00 	cmpl   $0xffff,-0x8(%rbp)
ffffffff80206587:	75 0c                	jne    ffffffff80206595 <_Z41__static_initialization_and_destruction_0ii+0x2d>
ffffffff80206589:	48 c7 c7 c0 9b 21 80 	mov    $0xffffffff80219bc0,%rdi
ffffffff80206590:	e8 2b f5 ff ff       	call   ffffffff80205ac0 <_ZN8SpinlockC1Ev>
ffffffff80206595:	90                   	nop
ffffffff80206596:	c9                   	leave  
ffffffff80206597:	c3                   	ret    

ffffffff80206598 <_GLOBAL__sub_I_vga_spinlock>:
ffffffff80206598:	f3 0f 1e fa          	endbr64 
ffffffff8020659c:	55                   	push   %rbp
ffffffff8020659d:	48 89 e5             	mov    %rsp,%rbp
ffffffff802065a0:	be ff ff 00 00       	mov    $0xffff,%esi
ffffffff802065a5:	bf 01 00 00 00       	mov    $0x1,%edi
ffffffff802065aa:	e8 b9 ff ff ff       	call   ffffffff80206568 <_Z41__static_initialization_and_destruction_0ii>
ffffffff802065af:	5d                   	pop    %rbp
ffffffff802065b0:	c3                   	ret    

ffffffff802065b1 <_ZN13VirtualMemory7MapPageEPNS_13PageMapLevel4Emmi>:
ffffffff802065b1:	f3 0f 1e fa          	endbr64 
ffffffff802065b5:	55                   	push   %rbp
ffffffff802065b6:	48 89 e5             	mov    %rsp,%rbp
ffffffff802065b9:	48 83 ec 60          	sub    $0x60,%rsp
ffffffff802065bd:	48 89 7d b8          	mov    %rdi,-0x48(%rbp)
ffffffff802065c1:	48 89 75 b0          	mov    %rsi,-0x50(%rbp)
ffffffff802065c5:	48 89 55 a8          	mov    %rdx,-0x58(%rbp)
ffffffff802065c9:	89 4d a4             	mov    %ecx,-0x5c(%rbp)
ffffffff802065cc:	48 83 7d b8 00       	cmpq   $0x0,-0x48(%rbp)
ffffffff802065d1:	75 0b                	jne    ffffffff802065de <_ZN13VirtualMemory7MapPageEPNS_13PageMapLevel4Emmi+0x2d>
ffffffff802065d3:	48 8b 05 46 36 01 00 	mov    0x13646(%rip),%rax        # ffffffff80219c20 <top_level>
ffffffff802065da:	48 89 45 b8          	mov    %rax,-0x48(%rbp)
ffffffff802065de:	48 8b 45 a8          	mov    -0x58(%rbp),%rax
ffffffff802065e2:	48 c1 e8 27          	shr    $0x27,%rax
ffffffff802065e6:	25 ff 01 00 00       	and    $0x1ff,%eax
ffffffff802065eb:	48 89 45 f8          	mov    %rax,-0x8(%rbp)
ffffffff802065ef:	48 8b 45 a8          	mov    -0x58(%rbp),%rax
ffffffff802065f3:	48 c1 e8 1e          	shr    $0x1e,%rax
ffffffff802065f7:	25 ff 01 00 00       	and    $0x1ff,%eax
ffffffff802065fc:	48 89 45 f0          	mov    %rax,-0x10(%rbp)
ffffffff80206600:	48 8b 45 a8          	mov    -0x58(%rbp),%rax
ffffffff80206604:	48 c1 e8 15          	shr    $0x15,%rax
ffffffff80206608:	25 ff 01 00 00       	and    $0x1ff,%eax
ffffffff8020660d:	48 89 45 e8          	mov    %rax,-0x18(%rbp)
ffffffff80206611:	48 8b 45 a8          	mov    -0x58(%rbp),%rax
ffffffff80206615:	48 c1 e8 0c          	shr    $0xc,%rax
ffffffff80206619:	25 ff 01 00 00       	and    $0x1ff,%eax
ffffffff8020661e:	48 89 45 e0          	mov    %rax,-0x20(%rbp)
ffffffff80206622:	48 8b 45 b8          	mov    -0x48(%rbp),%rax
ffffffff80206626:	48 8b 55 f8          	mov    -0x8(%rbp),%rdx
ffffffff8020662a:	48 8b 04 d0          	mov    (%rax,%rdx,8),%rax
ffffffff8020662e:	48 85 c0             	test   %rax,%rax
ffffffff80206631:	75 27                	jne    ffffffff8020665a <_ZN13VirtualMemory7MapPageEPNS_13PageMapLevel4Emmi+0xa9>
ffffffff80206633:	bf 01 00 00 00       	mov    $0x1,%edi
ffffffff80206638:	e8 54 eb ff ff       	call   ffffffff80205191 <_ZN14PhysicalMemory10AllocPagesEm>
ffffffff8020663d:	48 89 c2             	mov    %rax,%rdx
ffffffff80206640:	8b 45 a4             	mov    -0x5c(%rbp),%eax
ffffffff80206643:	48 98                	cltq   
ffffffff80206645:	0f b6 c0             	movzbl %al,%eax
ffffffff80206648:	48 89 d1             	mov    %rdx,%rcx
ffffffff8020664b:	48 09 c1             	or     %rax,%rcx
ffffffff8020664e:	48 8b 45 b8          	mov    -0x48(%rbp),%rax
ffffffff80206652:	48 8b 55 f8          	mov    -0x8(%rbp),%rdx
ffffffff80206656:	48 89 0c d0          	mov    %rcx,(%rax,%rdx,8)
ffffffff8020665a:	48 8b 05 bf 35 01 00 	mov    0x135bf(%rip),%rax        # ffffffff80219c20 <top_level>
ffffffff80206661:	48 8b 55 f8          	mov    -0x8(%rbp),%rdx
ffffffff80206665:	48 8b 04 d0          	mov    (%rax,%rdx,8),%rax
ffffffff80206669:	b0 00                	mov    $0x0,%al
ffffffff8020666b:	48 89 45 d8          	mov    %rax,-0x28(%rbp)
ffffffff8020666f:	48 8b 45 d8          	mov    -0x28(%rbp),%rax
ffffffff80206673:	48 8b 55 f0          	mov    -0x10(%rbp),%rdx
ffffffff80206677:	48 8b 04 d0          	mov    (%rax,%rdx,8),%rax
ffffffff8020667b:	48 85 c0             	test   %rax,%rax
ffffffff8020667e:	75 27                	jne    ffffffff802066a7 <_ZN13VirtualMemory7MapPageEPNS_13PageMapLevel4Emmi+0xf6>
ffffffff80206680:	bf 01 00 00 00       	mov    $0x1,%edi
ffffffff80206685:	e8 07 eb ff ff       	call   ffffffff80205191 <_ZN14PhysicalMemory10AllocPagesEm>
ffffffff8020668a:	48 89 c2             	mov    %rax,%rdx
ffffffff8020668d:	8b 45 a4             	mov    -0x5c(%rbp),%eax
ffffffff80206690:	48 98                	cltq   
ffffffff80206692:	0f b6 c0             	movzbl %al,%eax
ffffffff80206695:	48 89 d1             	mov    %rdx,%rcx
ffffffff80206698:	48 09 c1             	or     %rax,%rcx
ffffffff8020669b:	48 8b 45 d8          	mov    -0x28(%rbp),%rax
ffffffff8020669f:	48 8b 55 f0          	mov    -0x10(%rbp),%rdx
ffffffff802066a3:	48 89 0c d0          	mov    %rcx,(%rax,%rdx,8)
ffffffff802066a7:	48 8b 45 d8          	mov    -0x28(%rbp),%rax
ffffffff802066ab:	48 8b 55 f0          	mov    -0x10(%rbp),%rdx
ffffffff802066af:	48 8b 04 d0          	mov    (%rax,%rdx,8),%rax
ffffffff802066b3:	b0 00                	mov    $0x0,%al
ffffffff802066b5:	48 89 45 d0          	mov    %rax,-0x30(%rbp)
ffffffff802066b9:	48 8b 45 d0          	mov    -0x30(%rbp),%rax
ffffffff802066bd:	48 8b 55 e8          	mov    -0x18(%rbp),%rdx
ffffffff802066c1:	48 8b 04 d0          	mov    (%rax,%rdx,8),%rax
ffffffff802066c5:	48 85 c0             	test   %rax,%rax
ffffffff802066c8:	75 27                	jne    ffffffff802066f1 <_ZN13VirtualMemory7MapPageEPNS_13PageMapLevel4Emmi+0x140>
ffffffff802066ca:	bf 01 00 00 00       	mov    $0x1,%edi
ffffffff802066cf:	e8 bd ea ff ff       	call   ffffffff80205191 <_ZN14PhysicalMemory10AllocPagesEm>
ffffffff802066d4:	48 89 c2             	mov    %rax,%rdx
ffffffff802066d7:	8b 45 a4             	mov    -0x5c(%rbp),%eax
ffffffff802066da:	48 98                	cltq   
ffffffff802066dc:	0f b6 c0             	movzbl %al,%eax
ffffffff802066df:	48 89 d1             	mov    %rdx,%rcx
ffffffff802066e2:	48 09 c1             	or     %rax,%rcx
ffffffff802066e5:	48 8b 45 d0          	mov    -0x30(%rbp),%rax
ffffffff802066e9:	48 8b 55 e8          	mov    -0x18(%rbp),%rdx
ffffffff802066ed:	48 89 0c d0          	mov    %rcx,(%rax,%rdx,8)
ffffffff802066f1:	48 8b 45 d0          	mov    -0x30(%rbp),%rax
ffffffff802066f5:	48 8b 55 e8          	mov    -0x18(%rbp),%rdx
ffffffff802066f9:	48 8b 04 d0          	mov    (%rax,%rdx,8),%rax
ffffffff802066fd:	b0 00                	mov    $0x0,%al
ffffffff802066ff:	48 89 45 c8          	mov    %rax,-0x38(%rbp)
ffffffff80206703:	8b 45 a4             	mov    -0x5c(%rbp),%eax
ffffffff80206706:	48 98                	cltq   
ffffffff80206708:	48 0b 45 b0          	or     -0x50(%rbp),%rax
ffffffff8020670c:	48 89 c1             	mov    %rax,%rcx
ffffffff8020670f:	48 8b 45 c8          	mov    -0x38(%rbp),%rax
ffffffff80206713:	48 8b 55 e0          	mov    -0x20(%rbp),%rdx
ffffffff80206717:	48 89 0c d0          	mov    %rcx,(%rax,%rdx,8)
ffffffff8020671b:	90                   	nop
ffffffff8020671c:	c9                   	leave  
ffffffff8020671d:	c3                   	ret    

ffffffff8020671e <_ZN13VirtualMemory21CreateNewAddressSpaceEv>:
ffffffff8020671e:	f3 0f 1e fa          	endbr64 
ffffffff80206722:	55                   	push   %rbp
ffffffff80206723:	48 89 e5             	mov    %rsp,%rbp
ffffffff80206726:	48 83 ec 10          	sub    $0x10,%rsp
ffffffff8020672a:	bf 01 00 00 00       	mov    $0x1,%edi
ffffffff8020672f:	e8 5d ea ff ff       	call   ffffffff80205191 <_ZN14PhysicalMemory10AllocPagesEm>
ffffffff80206734:	48 89 45 f8          	mov    %rax,-0x8(%rbp)
ffffffff80206738:	48 8b 45 f8          	mov    -0x8(%rbp),%rax
ffffffff8020673c:	41 b8 03 00 00 00    	mov    $0x3,%r8d
ffffffff80206742:	b9 00 00 05 00       	mov    $0x50000,%ecx
ffffffff80206747:	48 c7 c2 00 00 00 80 	mov    $0xffffffff80000000,%rdx
ffffffff8020674e:	be 00 00 00 00       	mov    $0x0,%esi
ffffffff80206753:	48 89 c7             	mov    %rax,%rdi
ffffffff80206756:	e8 21 00 00 00       	call   ffffffff8020677c <_ZN13VirtualMemory7MapPageEPNS_13PageMapLevel4Emmmi>
ffffffff8020675b:	48 8b 45 f8          	mov    -0x8(%rbp),%rax
ffffffff8020675f:	b9 03 00 00 00       	mov    $0x3,%ecx
ffffffff80206764:	ba 00 80 0b 00       	mov    $0xb8000,%edx
ffffffff80206769:	be 00 80 0b 00       	mov    $0xb8000,%esi
ffffffff8020676e:	48 89 c7             	mov    %rax,%rdi
ffffffff80206771:	e8 3b fe ff ff       	call   ffffffff802065b1 <_ZN13VirtualMemory7MapPageEPNS_13PageMapLevel4Emmi>
ffffffff80206776:	48 8b 45 f8          	mov    -0x8(%rbp),%rax
ffffffff8020677a:	c9                   	leave  
ffffffff8020677b:	c3                   	ret    

ffffffff8020677c <_ZN13VirtualMemory7MapPageEPNS_13PageMapLevel4Emmmi>:
ffffffff8020677c:	f3 0f 1e fa          	endbr64 
ffffffff80206780:	55                   	push   %rbp
ffffffff80206781:	48 89 e5             	mov    %rsp,%rbp
ffffffff80206784:	48 83 ec 40          	sub    $0x40,%rsp
ffffffff80206788:	48 89 7d e8          	mov    %rdi,-0x18(%rbp)
ffffffff8020678c:	48 89 75 e0          	mov    %rsi,-0x20(%rbp)
ffffffff80206790:	48 89 55 d8          	mov    %rdx,-0x28(%rbp)
ffffffff80206794:	48 89 4d d0          	mov    %rcx,-0x30(%rbp)
ffffffff80206798:	44 89 45 cc          	mov    %r8d,-0x34(%rbp)
ffffffff8020679c:	48 c7 45 f8 00 00 00 	movq   $0x0,-0x8(%rbp)
ffffffff802067a3:	00 
ffffffff802067a4:	eb 3f                	jmp    ffffffff802067e5 <_ZN13VirtualMemory7MapPageEPNS_13PageMapLevel4Emmmi+0x69>
ffffffff802067a6:	48 8b 45 f8          	mov    -0x8(%rbp),%rax
ffffffff802067aa:	48 c1 e0 0c          	shl    $0xc,%rax
ffffffff802067ae:	48 89 c2             	mov    %rax,%rdx
ffffffff802067b1:	48 8b 45 d8          	mov    -0x28(%rbp),%rax
ffffffff802067b5:	48 8d 3c 02          	lea    (%rdx,%rax,1),%rdi
ffffffff802067b9:	48 8b 45 f8          	mov    -0x8(%rbp),%rax
ffffffff802067bd:	48 c1 e0 0c          	shl    $0xc,%rax
ffffffff802067c1:	48 89 c2             	mov    %rax,%rdx
ffffffff802067c4:	48 8b 45 e0          	mov    -0x20(%rbp),%rax
ffffffff802067c8:	48 8d 34 02          	lea    (%rdx,%rax,1),%rsi
ffffffff802067cc:	8b 55 cc             	mov    -0x34(%rbp),%edx
ffffffff802067cf:	48 8b 45 e8          	mov    -0x18(%rbp),%rax
ffffffff802067d3:	89 d1                	mov    %edx,%ecx
ffffffff802067d5:	48 89 fa             	mov    %rdi,%rdx
ffffffff802067d8:	48 89 c7             	mov    %rax,%rdi
ffffffff802067db:	e8 d1 fd ff ff       	call   ffffffff802065b1 <_ZN13VirtualMemory7MapPageEPNS_13PageMapLevel4Emmi>
ffffffff802067e0:	48 83 45 f8 01       	addq   $0x1,-0x8(%rbp)
ffffffff802067e5:	48 8b 45 f8          	mov    -0x8(%rbp),%rax
ffffffff802067e9:	48 3b 45 d0          	cmp    -0x30(%rbp),%rax
ffffffff802067ed:	72 b7                	jb     ffffffff802067a6 <_ZN13VirtualMemory7MapPageEPNS_13PageMapLevel4Emmmi+0x2a>
ffffffff802067ef:	90                   	nop
ffffffff802067f0:	90                   	nop
ffffffff802067f1:	c9                   	leave  
ffffffff802067f2:	c3                   	ret    

ffffffff802067f3 <_ZN13VirtualMemory10InitializeEv>:
ffffffff802067f3:	f3 0f 1e fa          	endbr64 
ffffffff802067f7:	55                   	push   %rbp
ffffffff802067f8:	48 89 e5             	mov    %rsp,%rbp
ffffffff802067fb:	48 83 ec 10          	sub    $0x10,%rsp
ffffffff802067ff:	bf 01 00 00 00       	mov    $0x1,%edi
ffffffff80206804:	e8 88 e9 ff ff       	call   ffffffff80205191 <_ZN14PhysicalMemory10AllocPagesEm>
ffffffff80206809:	48 89 05 10 34 01 00 	mov    %rax,0x13410(%rip)        # ffffffff80219c20 <top_level>
ffffffff80206810:	41 b8 03 00 00 00    	mov    $0x3,%r8d
ffffffff80206816:	b9 00 00 05 00       	mov    $0x50000,%ecx
ffffffff8020681b:	48 c7 c2 00 00 00 80 	mov    $0xffffffff80000000,%rdx
ffffffff80206822:	be 00 00 00 00       	mov    $0x0,%esi
ffffffff80206827:	bf 00 00 00 00       	mov    $0x0,%edi
ffffffff8020682c:	e8 4b ff ff ff       	call   ffffffff8020677c <_ZN13VirtualMemory7MapPageEPNS_13PageMapLevel4Emmmi>
ffffffff80206831:	b9 03 00 00 00       	mov    $0x3,%ecx
ffffffff80206836:	ba 00 80 0b 00       	mov    $0xb8000,%edx
ffffffff8020683b:	be 00 80 0b 00       	mov    $0xb8000,%esi
ffffffff80206840:	bf 00 00 00 00       	mov    $0x0,%edi
ffffffff80206845:	e8 67 fd ff ff       	call   ffffffff802065b1 <_ZN13VirtualMemory7MapPageEPNS_13PageMapLevel4Emmi>
ffffffff8020684a:	c7 45 fc 00 00 00 00 	movl   $0x0,-0x4(%rbp)
ffffffff80206851:	eb 2a                	jmp    ffffffff8020687d <_ZN13VirtualMemory10InitializeEv+0x8a>
ffffffff80206853:	8b 45 fc             	mov    -0x4(%rbp),%eax
ffffffff80206856:	c1 e0 0c             	shl    $0xc,%eax
ffffffff80206859:	48 98                	cltq   
ffffffff8020685b:	48 89 45 f0          	mov    %rax,-0x10(%rbp)
ffffffff8020685f:	48 8b 55 f0          	mov    -0x10(%rbp),%rdx
ffffffff80206863:	48 8b 45 f0          	mov    -0x10(%rbp),%rax
ffffffff80206867:	b9 03 00 00 00       	mov    $0x3,%ecx
ffffffff8020686c:	48 89 c6             	mov    %rax,%rsi
ffffffff8020686f:	bf 00 00 00 00       	mov    $0x0,%edi
ffffffff80206874:	e8 38 fd ff ff       	call   ffffffff802065b1 <_ZN13VirtualMemory7MapPageEPNS_13PageMapLevel4Emmi>
ffffffff80206879:	83 45 fc 01          	addl   $0x1,-0x4(%rbp)
ffffffff8020687d:	81 7d fc ff 03 00 00 	cmpl   $0x3ff,-0x4(%rbp)
ffffffff80206884:	7e cd                	jle    ffffffff80206853 <_ZN13VirtualMemory10InitializeEv+0x60>
ffffffff80206886:	bf 08 00 00 00       	mov    $0x8,%edi
ffffffff8020688b:	e8 01 e9 ff ff       	call   ffffffff80205191 <_ZN14PhysicalMemory10AllocPagesEm>
ffffffff80206890:	48 89 c6             	mov    %rax,%rsi
ffffffff80206893:	41 b8 03 00 00 00    	mov    $0x3,%r8d
ffffffff80206899:	b9 00 10 00 00       	mov    $0x1000,%ecx
ffffffff8020689e:	48 b8 00 00 00 00 00 	movabs $0xffffa00000000000,%rax
ffffffff802068a5:	a0 ff ff 
ffffffff802068a8:	48 89 c2             	mov    %rax,%rdx
ffffffff802068ab:	bf 00 00 00 00       	mov    $0x0,%edi
ffffffff802068b0:	e8 c7 fe ff ff       	call   ffffffff8020677c <_ZN13VirtualMemory7MapPageEPNS_13PageMapLevel4Emmmi>
ffffffff802068b5:	48 8b 05 64 33 01 00 	mov    0x13364(%rip),%rax        # ffffffff80219c20 <top_level>
ffffffff802068bc:	0f 22 d8             	mov    %rax,%cr3
ffffffff802068bf:	90                   	nop
ffffffff802068c0:	c9                   	leave  
ffffffff802068c1:	c3                   	ret    
